((dp0
I1
I384
sI2
I371
sI3
I134
sI4
I315
sI5
I322
sI6
I188
sI7
I296
sI8
I405
sI9
I159
sI10
I172
sI11
I169
sI12
I221
sI13
I152
sI14
I182
sI15
I319
sI16
I274
sI17
I370
sI18
I306
sI19
I176
sI20
I207
s(dp1
I1
I0
sI2
I0
sI3
I0
sI4
I0
sI5
I0
sI6
I0
sI7
I0
sI8
I0
sI9
I0
sI10
I0
sI11
I0
sI12
I0
sI13
I0
sI14
I0
sI15
I0
sI16
I0
sI17
I0
sI18
I0
sI19
I0
sI20
I0
s(dp2
I1
F3.7916666666666665
sI2
F4.258760107816712
sI3
F3.91044776119403
sI4
F4.212698412698413
sI5
F3.62111801242236
sI6
F4.446808510638298
sI7
F4.25
sI8
F4.204938271604938
sI9
F4.553459119496855
sI10
F4.034883720930233
sI11
F4.047337278106509
sI12
F4.597285067873303
sI13
F4.118421052631579
sI14
F3.978021978021978
sI15
F4.326018808777429
sI16
F4.083941605839416
sI17
F4.356756756756757
sI18
F3.9640522875816995
sI19
F4.153409090909091
sI20
F4.159420289855072
s(dp3
I1
F4.377604166666667
sI2
F4.568733153638814
sI3
F4.365671641791045
sI4
F4.479365079365079
sI5
F4.214285714285714
sI6
F4.574468085106383
sI7
F4.5574324324324325
sI8
F4.619753086419753
sI9
F4.754716981132075
sI10
F4.587209302325581
sI11
F4.461538461538462
sI12
F4.864253393665158
sI13
F4.592105263157895
sI14
F4.631868131868132
sI15
F4.6802507836990594
sI16
F4.6678832116788325
sI17
F4.6567567567567565
sI18
F4.578431372549019
sI19
F4.5227272727272725
sI20
F4.396135265700483
s(dp4
I1
ccollections
defaultdict
p5
(c__builtin__
int
p6
tp7
Rp8
I1
I58
sI2
I78
sI3
I80
sI4
I51
sI5
I39
sI6
I12
sI7
I21
sI8
I21
sI9
I24
ssI2
g5
(g6
tp9
Rp10
I1
I42
sI2
I65
sI3
I58
sI4
I69
sI5
I33
sI6
I25
sI7
I15
sI8
I38
sI9
I26
ssI3
g5
(g6
tp11
Rp12
I1
I16
sI2
I28
sI3
I29
sI4
I15
sI5
I14
sI6
I6
sI7
I13
sI8
I9
sI9
I4
ssI4
g5
(g6
tp13
Rp14
I1
I46
sI2
I54
sI3
I52
sI4
I38
sI5
I34
sI6
I21
sI7
I17
sI8
I27
sI9
I26
ssI5
g5
(g6
tp15
Rp16
I1
I56
sI2
I87
sI3
I46
sI4
I43
sI5
I23
sI6
I13
sI7
I20
sI8
I13
sI9
I21
ssI6
g5
(g6
tp17
Rp18
I1
I9
sI2
I41
sI3
I33
sI4
I33
sI5
I18
sI6
I8
sI7
I9
sI8
I20
sI9
I17
ssI7
g5
(g6
tp19
Rp20
I1
I27
sI2
I56
sI3
I68
sI4
I33
sI5
I27
sI6
I17
sI7
I19
sI8
I28
sI9
I21
ssI8
g5
(g6
tp21
Rp22
I1
I43
sI2
I77
sI3
I89
sI4
I52
sI5
I36
sI6
I15
sI7
I27
sI8
I22
sI9
I44
ssI9
g5
(g6
tp23
Rp24
I1
I14
sI2
I23
sI3
I30
sI4
I30
sI5
I10
sI6
I9
sI7
I11
sI8
I15
sI9
I17
ssI10
g5
(g6
tp25
Rp26
I1
I23
sI2
I39
sI3
I30
sI4
I15
sI5
I16
sI6
I14
sI7
I12
sI8
I12
sI9
I11
ssI11
g5
(g6
tp27
Rp28
I1
I18
sI2
I50
sI3
I25
sI4
I12
sI5
I16
sI6
I10
sI7
I12
sI8
I15
sI9
I11
ssI12
g5
(g6
tp29
Rp30
I1
I20
sI2
I49
sI3
I27
sI4
I20
sI5
I26
sI6
I13
sI7
I19
sI8
I27
sI9
I20
ssI13
g5
(g6
tp31
Rp32
I1
I20
sI2
I37
sI3
I22
sI4
I15
sI5
I15
sI6
I8
sI7
I10
sI8
I12
sI9
I13
ssI14
g5
(g6
tp33
Rp34
I1
I24
sI2
I38
sI3
I38
sI4
I24
sI5
I10
sI6
I12
sI7
I7
sI8
I18
sI9
I11
ssI15
g5
(g6
tp35
Rp36
I1
I37
sI2
I68
sI3
I55
sI4
I28
sI5
I29
sI6
I17
sI7
I21
sI8
I40
sI9
I24
ssI16
g5
(g6
tp37
Rp38
I1
I37
sI2
I54
sI3
I48
sI4
I36
sI5
I30
sI6
I12
sI7
I14
sI8
I21
sI9
I22
ssI17
g5
(g6
tp39
Rp40
I1
I54
sI2
I75
sI3
I62
sI4
I30
sI5
I16
sI6
I20
sI7
I35
sI8
I45
sI9
I33
ssI18
g5
(g6
tp41
Rp42
I1
I34
sI2
I91
sI3
I44
sI4
I27
sI5
I24
sI6
I23
sI7
I22
sI8
I24
sI9
I17
ssI19
g5
(g6
tp43
Rp44
I1
I17
sI2
I44
sI3
I26
sI4
I21
sI5
I17
sI6
I13
sI7
I12
sI8
I17
sI9
I9
ssI20
g5
(g6
tp45
Rp46
I1
I30
sI2
I40
sI3
I30
sI4
I26
sI5
I27
sI6
I13
sI7
I7
sI8
I11
sI9
I23
ss(dp47
I1
(lp48
(I3
I3
tp49
a(I5
I3
tp50
a(I4
I3
tp51
a(I5
I3
tp52
a(I5
I5
tp53
a(I4
I2
tp54
a(I4
I2
tp55
a(I3
I2
tp56
a(I5
I4
tp57
a(I4
I3
tp58
a(I6
I2
tp59
a(I6
I5
tp60
a(I5
I3
tp61
a(I2
I2
tp62
a(I6
I4
tp63
a(I5
I5
tp64
a(I5
I5
tp65
a(I2
I1
tp66
a(I4
I2
tp67
a(I5
I4
tp68
a(I5
I4
tp69
a(I4
I2
tp70
a(I5
I4
tp71
a(I5
I4
tp72
a(I5
I5
tp73
a(I4
I3
tp74
a(I2
I1
tp75
a(I6
I5
tp76
a(I7
I9
tp77
a(I4
I2
tp78
a(I4
I4
tp79
a(I4
I2
tp80
a(I2
I1
tp81
a(I6
I5
tp82
a(I3
I2
tp83
a(I7
I9
tp84
a(I7
I9
tp85
a(I4
I2
tp86
a(I3
I3
tp87
a(I8
I8
tp88
a(I5
I5
tp89
a(I5
I3
tp90
a(I5
I3
tp91
a(I2
I1
tp92
a(I3
I3
tp93
a(I7
I6
tp94
a(I4
I2
tp95
a(I2
I1
tp96
a(I4
I7
tp97
a(I4
I2
tp98
a(I6
I7
tp99
a(I7
I6
tp100
a(I5
I4
tp101
a(I6
I9
tp102
a(I2
I1
tp103
a(I2
I1
tp104
a(I5
I3
tp105
a(I2
I2
tp106
a(I4
I3
tp107
a(I2
I1
tp108
a(I5
I4
tp109
a(I3
I3
tp110
a(I5
I4
tp111
a(I3
I3
tp112
a(I8
I9
tp113
a(I6
I8
tp114
a(I4
I2
tp115
a(I2
I1
tp116
a(I4
I3
tp117
a(I4
I3
tp118
a(I4
I3
tp119
a(I5
I4
tp120
a(I5
I4
tp121
a(I4
I2
tp122
a(I3
I2
tp123
a(I6
I8
tp124
a(I5
I7
tp125
a(I7
I7
tp126
a(I2
I3
tp127
a(I5
I5
tp128
a(I7
I9
tp129
a(I2
I1
tp130
a(I6
I5
tp131
a(I5
I4
tp132
a(I4
I2
tp133
a(I4
I2
tp134
a(I4
I2
tp135
a(I5
I3
tp136
a(I4
I2
tp137
a(I2
I1
tp138
a(I7
I8
tp139
a(I2
I1
tp140
a(I5
I3
tp141
a(I6
I5
tp142
a(I8
I9
tp143
a(I2
I1
tp144
a(I4
I4
tp145
a(I2
I1
tp146
a(I8
I9
tp147
a(I5
I3
tp148
a(I4
I2
tp149
a(I2
I2
tp150
a(I7
I9
tp151
a(I2
I2
tp152
a(I3
I2
tp153
a(I3
I2
tp154
a(I2
I1
tp155
a(I3
I2
tp156
a(I3
I5
tp157
a(I6
I8
tp158
a(I5
I3
tp159
a(I5
I4
tp160
a(I4
I3
tp161
a(I4
I2
tp162
a(I2
I1
tp163
a(I4
I3
tp164
a(I5
I2
tp165
a(I5
I4
tp166
a(I5
I3
tp167
a(I5
I4
tp168
a(I5
I3
tp169
a(I2
I1
tp170
a(I5
I4
tp171
a(I3
I3
tp172
a(I5
I7
tp173
a(I2
I1
tp174
a(I4
I2
tp175
a(I2
I2
tp176
a(I3
I2
tp177
a(I6
I6
tp178
a(I5
I5
tp179
a(I2
I1
tp180
a(I5
I5
tp181
a(I4
I2
tp182
a(I5
I4
tp183
a(I2
I1
tp184
a(I4
I2
tp185
a(I3
I1
tp186
a(I4
I3
tp187
a(I3
I3
tp188
a(I3
I2
tp189
a(I3
I2
tp190
a(I6
I7
tp191
a(I2
I1
tp192
a(I2
I1
tp193
a(I2
I1
tp194
a(I2
I2
tp195
a(I6
I5
tp196
a(I5
I3
tp197
a(I4
I2
tp198
a(I4
I2
tp199
a(I4
I4
tp200
a(I5
I8
tp201
a(I2
I1
tp202
a(I6
I5
tp203
a(I5
I5
tp204
a(I7
I7
tp205
a(I5
I3
tp206
a(I5
I3
tp207
a(I3
I3
tp208
a(I4
I2
tp209
a(I4
I2
tp210
a(I5
I3
tp211
a(I3
I2
tp212
a(I5
I5
tp213
a(I7
I9
tp214
a(I5
I4
tp215
a(I7
I9
tp216
a(I4
I2
tp217
a(I4
I2
tp218
a(I2
I1
tp219
a(I5
I3
tp220
a(I4
I2
tp221
a(I4
I3
tp222
a(I6
I8
tp223
a(I4
I4
tp224
a(I4
I3
tp225
a(I7
I9
tp226
a(I2
I1
tp227
a(I4
I4
tp228
a(I5
I3
tp229
a(I5
I3
tp230
a(I6
I5
tp231
a(I5
I4
tp232
a(I6
I9
tp233
a(I4
I3
tp234
a(I6
I8
tp235
a(I6
I9
tp236
a(I7
I6
tp237
a(I4
I3
tp238
a(I5
I4
tp239
a(I2
I1
tp240
a(I4
I2
tp241
a(I6
I8
tp242
a(I4
I3
tp243
a(I5
I3
tp244
a(I5
I3
tp245
a(I6
I6
tp246
a(I3
I3
tp247
a(I5
I3
tp248
a(I5
I3
tp249
a(I2
I1
tp250
a(I5
I3
tp251
a(I5
I3
tp252
a(I5
I3
tp253
a(I4
I4
tp254
a(I5
I5
tp255
a(I5
I4
tp256
a(I5
I5
tp257
a(I5
I5
tp258
a(I5
I4
tp259
a(I1
I1
tp260
a(I7
I9
tp261
a(I7
I5
tp262
a(I5
I4
tp263
a(I4
I6
tp264
a(I2
I1
tp265
a(I5
I4
tp266
a(I4
I2
tp267
a(I3
I6
tp268
a(I6
I5
tp269
a(I5
I4
tp270
a(I4
I7
tp271
a(I4
I2
tp272
a(I3
I5
tp273
a(I6
I5
tp274
a(I5
I4
tp275
a(I4
I2
tp276
a(I2
I1
tp277
a(I4
I7
tp278
a(I3
I3
tp279
a(I5
I7
tp280
a(I3
I1
tp281
a(I6
I8
tp282
a(I7
I8
tp283
a(I7
I8
tp284
a(I6
I9
tp285
a(I4
I2
tp286
a(I7
I9
tp287
a(I5
I3
tp288
a(I7
I6
tp289
a(I4
I2
tp290
a(I4
I2
tp291
a(I4
I2
tp292
a(I5
I8
tp293
a(I4
I2
tp294
a(I2
I1
tp295
a(I6
I8
tp296
a(I2
I1
tp297
a(I4
I2
tp298
a(I4
I2
tp299
a(I5
I4
tp300
a(I5
I4
tp301
a(I4
I2
tp302
a(I2
I1
tp303
a(I5
I4
tp304
a(I4
I2
tp305
a(I3
I2
tp306
a(I6
I5
tp307
a(I6
I5
tp308
a(I5
I4
tp309
a(I4
I3
tp310
a(I4
I3
tp311
a(I5
I4
tp312
a(I4
I2
tp313
a(I4
I3
tp314
a(I8
I9
tp315
a(I2
I2
tp316
a(I2
I1
tp317
a(I4
I2
tp318
a(I5
I4
tp319
a(I4
I2
tp320
a(I2
I2
tp321
a(I6
I5
tp322
a(I4
I3
tp323
a(I2
I1
tp324
a(I2
I1
tp325
a(I4
I2
tp326
a(I3
I2
tp327
a(I4
I2
tp328
a(I4
I2
tp329
a(I5
I4
tp330
a(I6
I5
tp331
a(I5
I4
tp332
a(I4
I2
tp333
a(I2
I1
tp334
a(I2
I1
tp335
a(I8
I9
tp336
a(I2
I1
tp337
a(I6
I8
tp338
a(I4
I7
tp339
a(I4
I1
tp340
a(I4
I5
tp341
a(I7
I8
tp342
a(I4
I3
tp343
a(I4
I3
tp344
a(I2
I1
tp345
a(I6
I4
tp346
a(I4
I4
tp347
a(I2
I1
tp348
a(I4
I8
tp349
a(I5
I8
tp350
a(I2
I1
tp351
a(I6
I6
tp352
a(I2
I1
tp353
a(I5
I3
tp354
a(I7
I7
tp355
a(I5
I3
tp356
a(I5
I4
tp357
a(I6
I8
tp358
a(I5
I3
tp359
a(I4
I3
tp360
a(I3
I3
tp361
a(I3
I6
tp362
a(I3
I2
tp363
a(I7
I7
tp364
a(I6
I5
tp365
a(I2
I2
tp366
a(I5
I3
tp367
a(I3
I2
tp368
a(I3
I4
tp369
a(I4
I3
tp370
a(I5
I8
tp371
a(I4
I3
tp372
a(I4
I3
tp373
a(I5
I5
tp374
a(I4
I7
tp375
a(I5
I3
tp376
a(I4
I3
tp377
a(I3
I2
tp378
a(I4
I3
tp379
a(I4
I3
tp380
a(I6
I7
tp381
a(I6
I7
tp382
a(I6
I7
tp383
a(I2
I1
tp384
a(I6
I7
tp385
a(I2
I1
tp386
a(I4
I7
tp387
a(I4
I7
tp388
a(I4
I3
tp389
a(I4
I3
tp390
a(I4
I1
tp391
a(I6
I5
tp392
a(I4
I3
tp393
a(I7
I7
tp394
a(I5
I3
tp395
a(I5
I3
tp396
a(I5
I5
tp397
a(I2
I1
tp398
a(I2
I1
tp399
a(I6
I6
tp400
a(I5
I4
tp401
a(I2
I1
tp402
a(I5
I3
tp403
a(I4
I2
tp404
a(I4
I2
tp405
a(I8
I9
tp406
a(I6
I5
tp407
a(I4
I3
tp408
a(I5
I4
tp409
a(I6
I6
tp410
a(I5
I4
tp411
a(I8
I9
tp412
a(I2
I1
tp413
a(I6
I5
tp414
a(I6
I9
tp415
a(I4
I3
tp416
a(I7
I9
tp417
a(I2
I1
tp418
a(I2
I2
tp419
a(I5
I4
tp420
a(I6
I5
tp421
a(I5
I4
tp422
a(I7
I9
tp423
a(I6
I5
tp424
a(I4
I2
tp425
a(I4
I2
tp426
a(I2
I1
tp427
a(I2
I1
tp428
a(I5
I4
tp429
a(I2
I1
tp430
a(I4
I4
tp431
a(I7
I8
tp432
asI2
(lp433
(I8
I6
tp434
a(I5
I4
tp435
a(I6
I8
tp436
a(I5
I3
tp437
a(I2
I2
tp438
a(I4
I2
tp439
a(I8
I8
tp440
a(I4
I4
tp441
a(I6
I8
tp442
a(I6
I6
tp443
a(I5
I8
tp444
a(I3
I5
tp445
a(I6
I9
tp446
a(I2
I1
tp447
a(I5
I3
tp448
a(I7
I9
tp449
a(I4
I3
tp450
a(I8
I9
tp451
a(I4
I2
tp452
a(I4
I3
tp453
a(I4
I3
tp454
a(I4
I2
tp455
a(I5
I7
tp456
a(I5
I3
tp457
a(I5
I4
tp458
a(I4
I4
tp459
a(I2
I1
tp460
a(I7
I7
tp461
a(I5
I4
tp462
a(I6
I8
tp463
a(I7
I7
tp464
a(I7
I6
tp465
a(I6
I8
tp466
a(I6
I8
tp467
a(I5
I3
tp468
a(I4
I2
tp469
a(I5
I7
tp470
a(I5
I6
tp471
a(I5
I4
tp472
a(I6
I4
tp473
a(I4
I4
tp474
a(I3
I5
tp475
a(I4
I4
tp476
a(I7
I8
tp477
a(I6
I6
tp478
a(I5
I4
tp479
a(I4
I4
tp480
a(I7
I6
tp481
a(I6
I6
tp482
a(I4
I4
tp483
a(I5
I4
tp484
a(I7
I4
tp485
a(I4
I3
tp486
a(I4
I4
tp487
a(I4
I4
tp488
a(I4
I3
tp489
a(I7
I9
tp490
a(I5
I3
tp491
a(I5
I3
tp492
a(I2
I1
tp493
a(I4
I3
tp494
a(I4
I2
tp495
a(I3
I2
tp496
a(I5
I7
tp497
a(I4
I2
tp498
a(I6
I5
tp499
a(I3
I4
tp500
a(I2
I1
tp501
a(I4
I1
tp502
a(I3
I3
tp503
a(I2
I1
tp504
a(I3
I3
tp505
a(I3
I6
tp506
a(I4
I6
tp507
a(I2
I1
tp508
a(I3
I3
tp509
a(I7
I8
tp510
a(I5
I5
tp511
a(I4
I3
tp512
a(I4
I4
tp513
a(I5
I4
tp514
a(I5
I7
tp515
a(I7
I9
tp516
a(I3
I6
tp517
a(I6
I4
tp518
a(I4
I4
tp519
a(I2
I1
tp520
a(I6
I8
tp521
a(I4
I3
tp522
a(I6
I8
tp523
a(I2
I2
tp524
a(I4
I3
tp525
a(I2
I1
tp526
a(I5
I4
tp527
a(I2
I1
tp528
a(I2
I1
tp529
a(I2
I1
tp530
a(I2
I1
tp531
a(I6
I9
tp532
a(I5
I4
tp533
a(I5
I4
tp534
a(I4
I2
tp535
a(I7
I9
tp536
a(I5
I4
tp537
a(I3
I3
tp538
a(I5
I5
tp539
a(I2
I2
tp540
a(I4
I4
tp541
a(I5
I4
tp542
a(I5
I5
tp543
a(I4
I2
tp544
a(I3
I5
tp545
a(I6
I9
tp546
a(I2
I2
tp547
a(I4
I4
tp548
a(I5
I3
tp549
a(I2
I1
tp550
a(I4
I2
tp551
a(I2
I1
tp552
a(I5
I4
tp553
a(I2
I1
tp554
a(I2
I2
tp555
a(I4
I4
tp556
a(I6
I8
tp557
a(I3
I6
tp558
a(I4
I2
tp559
a(I4
I2
tp560
a(I5
I2
tp561
a(I4
I4
tp562
a(I3
I1
tp563
a(I6
I8
tp564
a(I2
I1
tp565
a(I4
I4
tp566
a(I3
I2
tp567
a(I4
I2
tp568
a(I5
I4
tp569
a(I4
I4
tp570
a(I6
I5
tp571
a(I2
I1
tp572
a(I3
I6
tp573
a(I5
I3
tp574
a(I6
I5
tp575
a(I4
I2
tp576
a(I6
I9
tp577
a(I6
I9
tp578
a(I2
I1
tp579
a(I4
I2
tp580
a(I5
I3
tp581
a(I8
I9
tp582
a(I5
I4
tp583
a(I5
I4
tp584
a(I5
I4
tp585
a(I3
I2
tp586
a(I5
I4
tp587
a(I7
I9
tp588
a(I2
I1
tp589
a(I6
I5
tp590
a(I2
I2
tp591
a(I2
I1
tp592
a(I3
I5
tp593
a(I5
I4
tp594
a(I7
I9
tp595
a(I3
I3
tp596
a(I4
I6
tp597
a(I5
I8
tp598
a(I4
I2
tp599
a(I4
I3
tp600
a(I2
I2
tp601
a(I4
I2
tp602
a(I5
I3
tp603
a(I3
I5
tp604
a(I4
I2
tp605
a(I5
I3
tp606
a(I5
I5
tp607
a(I7
I7
tp608
a(I5
I4
tp609
a(I2
I1
tp610
a(I7
I9
tp611
a(I2
I1
tp612
a(I4
I3
tp613
a(I4
I3
tp614
a(I6
I5
tp615
a(I4
I4
tp616
a(I3
I3
tp617
a(I7
I9
tp618
a(I3
I2
tp619
a(I7
I8
tp620
a(I6
I5
tp621
a(I4
I2
tp622
a(I6
I8
tp623
a(I5
I5
tp624
a(I5
I3
tp625
a(I4
I2
tp626
a(I4
I2
tp627
a(I7
I8
tp628
a(I7
I8
tp629
a(I7
I8
tp630
a(I5
I4
tp631
a(I6
I9
tp632
a(I4
I2
tp633
a(I4
I2
tp634
a(I4
I2
tp635
a(I2
I1
tp636
a(I4
I3
tp637
a(I2
I1
tp638
a(I4
I3
tp639
a(I8
I9
tp640
a(I5
I4
tp641
a(I5
I7
tp642
a(I5
I4
tp643
a(I4
I2
tp644
a(I5
I4
tp645
a(I5
I4
tp646
a(I5
I4
tp647
a(I4
I3
tp648
a(I6
I6
tp649
a(I5
I3
tp650
a(I6
I5
tp651
a(I5
I4
tp652
a(I5
I3
tp653
a(I6
I6
tp654
a(I6
I4
tp655
a(I6
I5
tp656
a(I7
I9
tp657
a(I7
I9
tp658
a(I4
I2
tp659
a(I4
I2
tp660
a(I4
I2
tp661
a(I4
I2
tp662
a(I4
I2
tp663
a(I3
I3
tp664
a(I6
I5
tp665
a(I5
I4
tp666
a(I5
I3
tp667
a(I4
I2
tp668
a(I5
I4
tp669
a(I3
I3
tp670
a(I4
I4
tp671
a(I4
I4
tp672
a(I4
I2
tp673
a(I6
I5
tp674
a(I6
I8
tp675
a(I5
I5
tp676
a(I5
I5
tp677
a(I4
I2
tp678
a(I2
I1
tp679
a(I5
I4
tp680
a(I5
I5
tp681
a(I4
I2
tp682
a(I2
I1
tp683
a(I2
I1
tp684
a(I7
I6
tp685
a(I4
I2
tp686
a(I4
I2
tp687
a(I3
I4
tp688
a(I6
I6
tp689
a(I5
I6
tp690
a(I5
I6
tp691
a(I5
I6
tp692
a(I6
I8
tp693
a(I4
I2
tp694
a(I4
I2
tp695
a(I4
I2
tp696
a(I4
I2
tp697
a(I4
I2
tp698
a(I4
I2
tp699
a(I4
I2
tp700
a(I5
I3
tp701
a(I5
I3
tp702
a(I2
I1
tp703
a(I3
I3
tp704
a(I5
I3
tp705
a(I5
I3
tp706
a(I6
I8
tp707
a(I5
I4
tp708
a(I3
I3
tp709
a(I5
I3
tp710
a(I6
I8
tp711
a(I4
I4
tp712
a(I5
I3
tp713
a(I5
I4
tp714
a(I5
I7
tp715
a(I6
I8
tp716
a(I5
I7
tp717
a(I3
I3
tp718
a(I3
I1
tp719
a(I2
I1
tp720
a(I6
I8
tp721
a(I7
I5
tp722
a(I2
I1
tp723
a(I5
I7
tp724
a(I5
I4
tp725
a(I4
I2
tp726
a(I4
I3
tp727
a(I5
I3
tp728
a(I8
I9
tp729
a(I5
I5
tp730
a(I5
I3
tp731
a(I3
I3
tp732
a(I5
I8
tp733
a(I6
I8
tp734
a(I4
I3
tp735
a(I5
I4
tp736
a(I2
I1
tp737
a(I3
I6
tp738
a(I7
I8
tp739
a(I7
I9
tp740
a(I6
I8
tp741
a(I5
I4
tp742
a(I7
I9
tp743
a(I3
I2
tp744
a(I6
I6
tp745
a(I2
I1
tp746
a(I5
I4
tp747
a(I5
I5
tp748
a(I4
I3
tp749
a(I6
I8
tp750
a(I2
I1
tp751
a(I3
I2
tp752
a(I6
I4
tp753
a(I6
I5
tp754
a(I4
I2
tp755
a(I8
I7
tp756
a(I8
I8
tp757
a(I5
I4
tp758
a(I6
I5
tp759
a(I4
I7
tp760
a(I4
I3
tp761
a(I6
I7
tp762
a(I3
I3
tp763
a(I2
I1
tp764
a(I4
I4
tp765
a(I2
I2
tp766
a(I3
I6
tp767
a(I8
I9
tp768
a(I5
I4
tp769
a(I6
I5
tp770
a(I7
I9
tp771
a(I6
I8
tp772
a(I4
I3
tp773
a(I4
I1
tp774
a(I2
I1
tp775
a(I4
I2
tp776
a(I3
I2
tp777
a(I6
I8
tp778
a(I6
I8
tp779
a(I7
I8
tp780
a(I2
I1
tp781
a(I5
I3
tp782
a(I2
I1
tp783
a(I4
I2
tp784
a(I3
I2
tp785
a(I4
I4
tp786
a(I6
I9
tp787
a(I5
I5
tp788
a(I2
I1
tp789
a(I5
I8
tp790
a(I5
I8
tp791
a(I5
I7
tp792
a(I6
I8
tp793
a(I7
I9
tp794
a(I7
I6
tp795
a(I3
I2
tp796
a(I4
I2
tp797
a(I5
I5
tp798
a(I5
I4
tp799
a(I6
I6
tp800
a(I6
I5
tp801
a(I5
I3
tp802
a(I4
I4
tp803
a(I6
I5
tp804
asI3
(lp805
(I4
I2
tp806
a(I3
I3
tp807
a(I6
I6
tp808
a(I3
I1
tp809
a(I6
I8
tp810
a(I7
I9
tp811
a(I7
I9
tp812
a(I5
I7
tp813
a(I5
I5
tp814
a(I4
I2
tp815
a(I5
I8
tp816
a(I6
I8
tp817
a(I5
I7
tp818
a(I5
I4
tp819
a(I3
I3
tp820
a(I5
I5
tp821
a(I4
I3
tp822
a(I5
I3
tp823
a(I5
I3
tp824
a(I4
I2
tp825
a(I5
I5
tp826
a(I3
I2
tp827
a(I4
I5
tp828
a(I3
I1
tp829
a(I4
I3
tp830
a(I3
I3
tp831
a(I2
I1
tp832
a(I4
I2
tp833
a(I4
I3
tp834
a(I3
I3
tp835
a(I3
I6
tp836
a(I3
I6
tp837
a(I6
I5
tp838
a(I6
I6
tp839
a(I4
I2
tp840
a(I5
I4
tp841
a(I1
I1
tp842
a(I3
I1
tp843
a(I3
I2
tp844
a(I3
I4
tp845
a(I3
I2
tp846
a(I5
I7
tp847
a(I4
I2
tp848
a(I6
I8
tp849
a(I5
I7
tp850
a(I5
I4
tp851
a(I5
I7
tp852
a(I7
I6
tp853
a(I4
I2
tp854
a(I4
I2
tp855
a(I3
I2
tp856
a(I5
I7
tp857
a(I5
I7
tp858
a(I4
I2
tp859
a(I6
I9
tp860
a(I5
I7
tp861
a(I6
I8
tp862
a(I3
I2
tp863
a(I4
I2
tp864
a(I5
I7
tp865
a(I4
I4
tp866
a(I4
I3
tp867
a(I6
I8
tp868
a(I2
I1
tp869
a(I4
I2
tp870
a(I5
I3
tp871
a(I6
I5
tp872
a(I5
I4
tp873
a(I5
I4
tp874
a(I2
I1
tp875
a(I6
I6
tp876
a(I5
I3
tp877
a(I5
I3
tp878
a(I5
I3
tp879
a(I5
I3
tp880
a(I5
I3
tp881
a(I5
I5
tp882
a(I5
I4
tp883
a(I3
I3
tp884
a(I4
I2
tp885
a(I5
I4
tp886
a(I5
I3
tp887
a(I6
I7
tp888
a(I5
I4
tp889
a(I4
I2
tp890
a(I2
I2
tp891
a(I3
I2
tp892
a(I7
I4
tp893
a(I5
I3
tp894
a(I4
I7
tp895
a(I2
I2
tp896
a(I4
I4
tp897
a(I5
I3
tp898
a(I7
I7
tp899
a(I5
I5
tp900
a(I4
I3
tp901
a(I5
I4
tp902
a(I7
I5
tp903
a(I6
I8
tp904
a(I4
I2
tp905
a(I5
I5
tp906
a(I8
I9
tp907
a(I1
I1
tp908
a(I2
I1
tp909
a(I2
I1
tp910
a(I7
I8
tp911
a(I4
I3
tp912
a(I5
I7
tp913
a(I5
I5
tp914
a(I5
I8
tp915
a(I4
I3
tp916
a(I7
I5
tp917
a(I4
I2
tp918
a(I6
I5
tp919
a(I5
I4
tp920
a(I5
I3
tp921
a(I4
I3
tp922
a(I3
I2
tp923
a(I4
I3
tp924
a(I4
I3
tp925
a(I4
I3
tp926
a(I1
I1
tp927
a(I6
I5
tp928
a(I2
I1
tp929
a(I4
I3
tp930
a(I2
I1
tp931
a(I4
I1
tp932
a(I2
I2
tp933
a(I4
I2
tp934
a(I5
I4
tp935
a(I2
I1
tp936
a(I4
I2
tp937
a(I4
I2
tp938
a(I2
I1
tp939
asI4
(lp940
(I4
I3
tp941
a(I6
I6
tp942
a(I6
I5
tp943
a(I4
I7
tp944
a(I6
I8
tp945
a(I4
I6
tp946
a(I7
I9
tp947
a(I5
I3
tp948
a(I4
I3
tp949
a(I3
I1
tp950
a(I4
I3
tp951
a(I6
I9
tp952
a(I5
I4
tp953
a(I6
I8
tp954
a(I5
I4
tp955
a(I4
I7
tp956
a(I4
I2
tp957
a(I5
I3
tp958
a(I6
I4
tp959
a(I2
I1
tp960
a(I2
I1
tp961
a(I4
I3
tp962
a(I6
I8
tp963
a(I2
I1
tp964
a(I3
I3
tp965
a(I3
I2
tp966
a(I3
I2
tp967
a(I6
I8
tp968
a(I2
I1
tp969
a(I2
I1
tp970
a(I6
I4
tp971
a(I4
I2
tp972
a(I2
I1
tp973
a(I9
I8
tp974
a(I2
I1
tp975
a(I3
I2
tp976
a(I3
I2
tp977
a(I2
I1
tp978
a(I2
I1
tp979
a(I6
I7
tp980
a(I5
I5
tp981
a(I6
I7
tp982
a(I5
I3
tp983
a(I4
I2
tp984
a(I4
I2
tp985
a(I5
I5
tp986
a(I5
I5
tp987
a(I2
I1
tp988
a(I4
I6
tp989
a(I4
I6
tp990
a(I7
I8
tp991
a(I6
I8
tp992
a(I7
I6
tp993
a(I2
I1
tp994
a(I2
I1
tp995
a(I5
I4
tp996
a(I4
I3
tp997
a(I4
I2
tp998
a(I2
I1
tp999
a(I4
I3
tp1000
a(I2
I1
tp1001
a(I2
I1
tp1002
a(I5
I9
tp1003
a(I2
I1
tp1004
a(I5
I4
tp1005
a(I5
I5
tp1006
a(I5
I3
tp1007
a(I4
I3
tp1008
a(I4
I3
tp1009
a(I2
I1
tp1010
a(I2
I1
tp1011
a(I4
I3
tp1012
a(I2
I1
tp1013
a(I5
I3
tp1014
a(I6
I8
tp1015
a(I2
I2
tp1016
a(I5
I9
tp1017
a(I4
I3
tp1018
a(I4
I6
tp1019
a(I5
I5
tp1020
a(I8
I5
tp1021
a(I7
I9
tp1022
a(I2
I2
tp1023
a(I5
I7
tp1024
a(I2
I1
tp1025
a(I5
I4
tp1026
a(I5
I4
tp1027
a(I4
I3
tp1028
a(I6
I5
tp1029
a(I7
I9
tp1030
a(I4
I2
tp1031
a(I2
I1
tp1032
a(I5
I7
tp1033
a(I5
I4
tp1034
a(I4
I2
tp1035
a(I4
I2
tp1036
a(I5
I4
tp1037
a(I3
I2
tp1038
a(I3
I2
tp1039
a(I4
I2
tp1040
a(I2
I1
tp1041
a(I4
I2
tp1042
a(I6
I5
tp1043
a(I4
I2
tp1044
a(I2
I1
tp1045
a(I3
I2
tp1046
a(I5
I4
tp1047
a(I5
I4
tp1048
a(I5
I4
tp1049
a(I7
I9
tp1050
a(I3
I6
tp1051
a(I2
I2
tp1052
a(I2
I2
tp1053
a(I2
I2
tp1054
a(I5
I8
tp1055
a(I5
I8
tp1056
a(I5
I4
tp1057
a(I4
I3
tp1058
a(I7
I8
tp1059
a(I5
I4
tp1060
a(I6
I9
tp1061
a(I6
I8
tp1062
a(I5
I8
tp1063
a(I6
I9
tp1064
a(I7
I6
tp1065
a(I2
I1
tp1066
a(I7
I9
tp1067
a(I2
I1
tp1068
a(I4
I2
tp1069
a(I2
I1
tp1070
a(I6
I5
tp1071
a(I5
I5
tp1072
a(I7
I6
tp1073
a(I4
I2
tp1074
a(I5
I3
tp1075
a(I4
I3
tp1076
a(I4
I2
tp1077
a(I5
I4
tp1078
a(I5
I4
tp1079
a(I5
I7
tp1080
a(I5
I4
tp1081
a(I6
I7
tp1082
a(I4
I6
tp1083
a(I4
I3
tp1084
a(I4
I2
tp1085
a(I2
I1
tp1086
a(I5
I8
tp1087
a(I3
I2
tp1088
a(I3
I2
tp1089
a(I5
I3
tp1090
a(I4
I2
tp1091
a(I7
I6
tp1092
a(I4
I5
tp1093
a(I4
I2
tp1094
a(I2
I1
tp1095
a(I7
I6
tp1096
a(I6
I5
tp1097
a(I3
I2
tp1098
a(I7
I6
tp1099
a(I6
I5
tp1100
a(I6
I5
tp1101
a(I6
I5
tp1102
a(I4
I2
tp1103
a(I2
I1
tp1104
a(I4
I3
tp1105
a(I4
I4
tp1106
a(I2
I1
tp1107
a(I6
I6
tp1108
a(I4
I4
tp1109
a(I4
I2
tp1110
a(I4
I4
tp1111
a(I6
I6
tp1112
a(I6
I5
tp1113
a(I6
I5
tp1114
a(I6
I6
tp1115
a(I4
I3
tp1116
a(I5
I4
tp1117
a(I5
I4
tp1118
a(I2
I2
tp1119
a(I4
I2
tp1120
a(I4
I2
tp1121
a(I5
I4
tp1122
a(I4
I2
tp1123
a(I7
I9
tp1124
a(I4
I5
tp1125
a(I6
I9
tp1126
a(I6
I9
tp1127
a(I6
I8
tp1128
a(I5
I7
tp1129
a(I6
I5
tp1130
a(I7
I6
tp1131
a(I5
I4
tp1132
a(I5
I6
tp1133
a(I5
I6
tp1134
a(I5
I5
tp1135
a(I4
I3
tp1136
a(I5
I4
tp1137
a(I5
I4
tp1138
a(I6
I5
tp1139
a(I8
I5
tp1140
a(I4
I2
tp1141
a(I5
I4
tp1142
a(I5
I4
tp1143
a(I1
I1
tp1144
a(I4
I3
tp1145
a(I5
I3
tp1146
a(I3
I2
tp1147
a(I7
I8
tp1148
a(I5
I7
tp1149
a(I5
I7
tp1150
a(I5
I9
tp1151
a(I4
I5
tp1152
a(I3
I2
tp1153
a(I6
I8
tp1154
a(I4
I3
tp1155
a(I4
I3
tp1156
a(I5
I4
tp1157
a(I3
I2
tp1158
a(I4
I2
tp1159
a(I5
I5
tp1160
a(I2
I1
tp1161
a(I6
I1
tp1162
a(I4
I2
tp1163
a(I3
I3
tp1164
a(I3
I2
tp1165
a(I6
I8
tp1166
a(I5
I4
tp1167
a(I4
I2
tp1168
a(I3
I3
tp1169
a(I5
I4
tp1170
a(I6
I5
tp1171
a(I5
I7
tp1172
a(I3
I2
tp1173
a(I6
I7
tp1174
a(I6
I7
tp1175
a(I6
I8
tp1176
a(I4
I3
tp1177
a(I2
I1
tp1178
a(I4
I1
tp1179
a(I5
I9
tp1180
a(I6
I9
tp1181
a(I4
I3
tp1182
a(I5
I4
tp1183
a(I5
I4
tp1184
a(I4
I3
tp1185
a(I5
I5
tp1186
a(I5
I4
tp1187
a(I5
I5
tp1188
a(I5
I3
tp1189
a(I5
I3
tp1190
a(I4
I3
tp1191
a(I6
I8
tp1192
a(I4
I2
tp1193
a(I6
I5
tp1194
a(I4
I2
tp1195
a(I5
I3
tp1196
a(I7
I9
tp1197
a(I6
I5
tp1198
a(I5
I3
tp1199
a(I6
I8
tp1200
a(I6
I8
tp1201
a(I4
I8
tp1202
a(I5
I3
tp1203
a(I7
I9
tp1204
a(I2
I2
tp1205
a(I2
I2
tp1206
a(I5
I7
tp1207
a(I3
I3
tp1208
a(I2
I1
tp1209
a(I3
I3
tp1210
a(I2
I1
tp1211
a(I2
I3
tp1212
a(I2
I1
tp1213
a(I4
I2
tp1214
a(I5
I5
tp1215
a(I5
I3
tp1216
a(I2
I1
tp1217
a(I5
I9
tp1218
a(I5
I7
tp1219
a(I8
I9
tp1220
a(I8
I9
tp1221
a(I8
I9
tp1222
a(I2
I2
tp1223
a(I6
I9
tp1224
a(I5
I7
tp1225
a(I4
I4
tp1226
a(I5
I3
tp1227
a(I4
I5
tp1228
a(I6
I5
tp1229
a(I5
I4
tp1230
a(I6
I9
tp1231
a(I4
I3
tp1232
a(I6
I8
tp1233
a(I8
I9
tp1234
a(I8
I9
tp1235
a(I2
I1
tp1236
a(I2
I1
tp1237
a(I2
I2
tp1238
a(I6
I8
tp1239
a(I2
I1
tp1240
a(I7
I8
tp1241
a(I2
I1
tp1242
a(I5
I5
tp1243
a(I4
I3
tp1244
a(I2
I1
tp1245
a(I4
I3
tp1246
a(I4
I3
tp1247
a(I4
I3
tp1248
a(I5
I4
tp1249
a(I6
I8
tp1250
a(I6
I6
tp1251
a(I6
I6
tp1252
a(I2
I1
tp1253
a(I5
I3
tp1254
a(I5
I3
tp1255
asI5
(lp1256
(I2
I1
tp1257
a(I5
I4
tp1258
a(I4
I3
tp1259
a(I4
I3
tp1260
a(I4
I2
tp1261
a(I5
I9
tp1262
a(I4
I2
tp1263
a(I3
I3
tp1264
a(I2
I1
tp1265
a(I3
I3
tp1266
a(I2
I1
tp1267
a(I6
I6
tp1268
a(I7
I9
tp1269
a(I4
I2
tp1270
a(I2
I1
tp1271
a(I4
I2
tp1272
a(I6
I8
tp1273
a(I5
I3
tp1274
a(I5
I7
tp1275
a(I5
I7
tp1276
a(I6
I8
tp1277
a(I6
I7
tp1278
a(I4
I2
tp1279
a(I4
I2
tp1280
a(I4
I2
tp1281
a(I2
I1
tp1282
a(I2
I1
tp1283
a(I2
I1
tp1284
a(I4
I2
tp1285
a(I8
I8
tp1286
a(I7
I8
tp1287
a(I2
I1
tp1288
a(I3
I2
tp1289
a(I4
I2
tp1290
a(I3
I4
tp1291
a(I3
I2
tp1292
a(I4
I4
tp1293
a(I2
I1
tp1294
a(I8
I9
tp1295
a(I4
I2
tp1296
a(I3
I3
tp1297
a(I4
I2
tp1298
a(I3
I2
tp1299
a(I5
I7
tp1300
a(I4
I2
tp1301
a(I4
I2
tp1302
a(I4
I4
tp1303
a(I6
I8
tp1304
a(I2
I1
tp1305
a(I6
I9
tp1306
a(I8
I7
tp1307
a(I4
I6
tp1308
a(I4
I2
tp1309
a(I4
I1
tp1310
a(I4
I6
tp1311
a(I4
I6
tp1312
a(I2
I1
tp1313
a(I5
I4
tp1314
a(I4
I7
tp1315
a(I4
I2
tp1316
a(I6
I8
tp1317
a(I6
I9
tp1318
a(I7
I9
tp1319
a(I4
I2
tp1320
a(I4
I2
tp1321
a(I4
I2
tp1322
a(I5
I8
tp1323
a(I4
I2
tp1324
a(I5
I3
tp1325
a(I3
I5
tp1326
a(I2
I2
tp1327
a(I3
I3
tp1328
a(I5
I3
tp1329
a(I3
I3
tp1330
a(I5
I4
tp1331
a(I4
I2
tp1332
a(I5
I5
tp1333
a(I7
I9
tp1334
a(I5
I5
tp1335
a(I4
I2
tp1336
a(I5
I4
tp1337
a(I4
I3
tp1338
a(I5
I7
tp1339
a(I5
I3
tp1340
a(I5
I4
tp1341
a(I3
I2
tp1342
a(I4
I6
tp1343
a(I6
I9
tp1344
a(I5
I9
tp1345
a(I2
I1
tp1346
a(I3
I5
tp1347
a(I7
I6
tp1348
a(I5
I4
tp1349
a(I2
I1
tp1350
a(I5
I5
tp1351
a(I5
I3
tp1352
a(I4
I3
tp1353
a(I4
I3
tp1354
a(I4
I4
tp1355
a(I4
I4
tp1356
a(I2
I1
tp1357
a(I6
I6
tp1358
a(I3
I1
tp1359
a(I5
I5
tp1360
a(I3
I2
tp1361
a(I5
I5
tp1362
a(I3
I2
tp1363
a(I7
I6
tp1364
a(I5
I7
tp1365
a(I3
I3
tp1366
a(I4
I2
tp1367
a(I4
I2
tp1368
a(I5
I5
tp1369
a(I7
I6
tp1370
a(I7
I6
tp1371
a(I5
I3
tp1372
a(I2
I1
tp1373
a(I6
I5
tp1374
a(I4
I4
tp1375
a(I2
I1
tp1376
a(I4
I2
tp1377
a(I4
I3
tp1378
a(I6
I1
tp1379
a(I6
I1
tp1380
a(I6
I9
tp1381
a(I4
I3
tp1382
a(I4
I7
tp1383
a(I4
I2
tp1384
a(I2
I3
tp1385
a(I4
I2
tp1386
a(I5
I4
tp1387
a(I3
I2
tp1388
a(I3
I2
tp1389
a(I4
I2
tp1390
a(I4
I2
tp1391
a(I2
I1
tp1392
a(I7
I9
tp1393
a(I8
I9
tp1394
a(I5
I5
tp1395
a(I7
I9
tp1396
a(I7
I9
tp1397
a(I7
I9
tp1398
a(I4
I2
tp1399
a(I6
I5
tp1400
a(I7
I9
tp1401
a(I4
I2
tp1402
a(I2
I1
tp1403
a(I2
I2
tp1404
a(I4
I2
tp1405
a(I4
I2
tp1406
a(I2
I1
tp1407
a(I2
I1
tp1408
a(I6
I3
tp1409
a(I7
I9
tp1410
a(I4
I2
tp1411
a(I2
I1
tp1412
a(I2
I1
tp1413
a(I2
I1
tp1414
a(I2
I1
tp1415
a(I4
I2
tp1416
a(I6
I5
tp1417
a(I5
I4
tp1418
a(I5
I3
tp1419
a(I4
I2
tp1420
a(I3
I2
tp1421
a(I2
I1
tp1422
a(I2
I1
tp1423
a(I4
I2
tp1424
a(I4
I2
tp1425
a(I2
I1
tp1426
a(I5
I3
tp1427
a(I5
I4
tp1428
a(I2
I1
tp1429
a(I2
I1
tp1430
a(I6
I8
tp1431
a(I5
I4
tp1432
a(I5
I4
tp1433
a(I2
I1
tp1434
a(I2
I1
tp1435
a(I5
I5
tp1436
a(I5
I4
tp1437
a(I3
I2
tp1438
a(I4
I2
tp1439
a(I4
I4
tp1440
a(I5
I3
tp1441
a(I7
I7
tp1442
a(I2
I1
tp1443
a(I8
I9
tp1444
a(I2
I1
tp1445
a(I5
I4
tp1446
a(I4
I2
tp1447
a(I2
I1
tp1448
a(I6
I7
tp1449
a(I6
I7
tp1450
a(I2
I3
tp1451
a(I4
I2
tp1452
a(I4
I2
tp1453
a(I5
I7
tp1454
a(I5
I4
tp1455
a(I4
I2
tp1456
a(I2
I2
tp1457
a(I5
I4
tp1458
a(I4
I2
tp1459
a(I4
I2
tp1460
a(I3
I2
tp1461
a(I5
I4
tp1462
a(I6
I3
tp1463
a(I2
I1
tp1464
a(I2
I1
tp1465
a(I2
I1
tp1466
a(I6
I3
tp1467
a(I4
I4
tp1468
a(I4
I2
tp1469
a(I2
I1
tp1470
a(I3
I5
tp1471
a(I6
I7
tp1472
a(I5
I3
tp1473
a(I4
I2
tp1474
a(I2
I1
tp1475
a(I2
I1
tp1476
a(I5
I4
tp1477
a(I3
I2
tp1478
a(I5
I4
tp1479
a(I3
I3
tp1480
a(I6
I4
tp1481
a(I5
I4
tp1482
a(I6
I4
tp1483
a(I5
I2
tp1484
a(I4
I2
tp1485
a(I4
I2
tp1486
a(I4
I2
tp1487
a(I4
I2
tp1488
a(I3
I2
tp1489
a(I3
I2
tp1490
a(I4
I2
tp1491
a(I5
I4
tp1492
a(I5
I4
tp1493
a(I5
I4
tp1494
a(I5
I5
tp1495
a(I5
I3
tp1496
a(I4
I2
tp1497
a(I6
I3
tp1498
a(I3
I3
tp1499
a(I5
I3
tp1500
a(I5
I3
tp1501
a(I4
I2
tp1502
a(I5
I7
tp1503
a(I5
I4
tp1504
a(I2
I2
tp1505
a(I5
I3
tp1506
a(I6
I8
tp1507
a(I6
I5
tp1508
a(I4
I7
tp1509
a(I5
I7
tp1510
a(I3
I5
tp1511
a(I3
I2
tp1512
a(I2
I1
tp1513
a(I2
I1
tp1514
a(I2
I1
tp1515
a(I5
I7
tp1516
a(I6
I8
tp1517
a(I2
I2
tp1518
a(I2
I2
tp1519
a(I3
I5
tp1520
a(I3
I5
tp1521
a(I6
I9
tp1522
a(I5
I3
tp1523
a(I5
I7
tp1524
a(I2
I2
tp1525
a(I2
I2
tp1526
a(I3
I2
tp1527
a(I3
I2
tp1528
a(I4
I3
tp1529
a(I6
I5
tp1530
a(I3
I2
tp1531
a(I2
I2
tp1532
a(I2
I1
tp1533
a(I5
I8
tp1534
a(I5
I8
tp1535
a(I6
I5
tp1536
a(I6
I8
tp1537
a(I4
I6
tp1538
a(I4
I2
tp1539
a(I2
I1
tp1540
a(I4
I3
tp1541
a(I2
I1
tp1542
a(I7
I9
tp1543
a(I4
I2
tp1544
a(I3
I2
tp1545
a(I2
I1
tp1546
a(I2
I1
tp1547
a(I4
I6
tp1548
a(I4
I2
tp1549
a(I2
I1
tp1550
a(I6
I3
tp1551
a(I6
I4
tp1552
a(I5
I3
tp1553
a(I5
I4
tp1554
a(I6
I4
tp1555
a(I7
I9
tp1556
a(I2
I1
tp1557
a(I6
I4
tp1558
a(I6
I4
tp1559
a(I4
I2
tp1560
a(I5
I4
tp1561
a(I8
I6
tp1562
a(I6
I5
tp1563
a(I6
I7
tp1564
a(I5
I3
tp1565
a(I3
I2
tp1566
a(I4
I3
tp1567
a(I6
I4
tp1568
a(I6
I5
tp1569
a(I2
I1
tp1570
a(I6
I4
tp1571
a(I5
I3
tp1572
a(I5
I4
tp1573
a(I2
I1
tp1574
a(I5
I3
tp1575
a(I5
I3
tp1576
a(I3
I3
tp1577
a(I4
I4
tp1578
asI6
(lp1579
(I3
I3
tp1580
a(I7
I9
tp1581
a(I5
I8
tp1582
a(I3
I3
tp1583
a(I4
I2
tp1584
a(I5
I5
tp1585
a(I5
I5
tp1586
a(I4
I2
tp1587
a(I5
I3
tp1588
a(I5
I4
tp1589
a(I4
I3
tp1590
a(I4
I2
tp1591
a(I2
I2
tp1592
a(I7
I7
tp1593
a(I5
I3
tp1594
a(I5
I3
tp1595
a(I3
I4
tp1596
a(I2
I1
tp1597
a(I2
I2
tp1598
a(I5
I3
tp1599
a(I2
I2
tp1600
a(I4
I2
tp1601
a(I5
I3
tp1602
a(I5
I4
tp1603
a(I4
I2
tp1604
a(I5
I5
tp1605
a(I8
I9
tp1606
a(I5
I5
tp1607
a(I5
I5
tp1608
a(I5
I3
tp1609
a(I5
I3
tp1610
a(I6
I9
tp1611
a(I5
I7
tp1612
a(I6
I8
tp1613
a(I3
I4
tp1614
a(I3
I6
tp1615
a(I5
I5
tp1616
a(I4
I3
tp1617
a(I5
I7
tp1618
a(I5
I5
tp1619
a(I5
I3
tp1620
a(I2
I1
tp1621
a(I3
I3
tp1622
a(I4
I3
tp1623
a(I3
I3
tp1624
a(I7
I9
tp1625
a(I5
I5
tp1626
a(I2
I2
tp1627
a(I6
I8
tp1628
a(I7
I9
tp1629
a(I7
I9
tp1630
a(I6
I9
tp1631
a(I4
I4
tp1632
a(I3
I2
tp1633
a(I5
I5
tp1634
a(I5
I4
tp1635
a(I2
I1
tp1636
a(I6
I5
tp1637
a(I4
I2
tp1638
a(I4
I2
tp1639
a(I6
I8
tp1640
a(I5
I8
tp1641
a(I3
I5
tp1642
a(I4
I2
tp1643
a(I3
I2
tp1644
a(I3
I3
tp1645
a(I4
I2
tp1646
a(I5
I3
tp1647
a(I2
I1
tp1648
a(I7
I9
tp1649
a(I6
I8
tp1650
a(I4
I2
tp1651
a(I7
I9
tp1652
a(I4
I6
tp1653
a(I5
I4
tp1654
a(I7
I9
tp1655
a(I5
I4
tp1656
a(I2
I1
tp1657
a(I6
I8
tp1658
a(I4
I4
tp1659
a(I4
I2
tp1660
a(I5
I4
tp1661
a(I3
I2
tp1662
a(I4
I4
tp1663
a(I5
I4
tp1664
a(I4
I3
tp1665
a(I3
I1
tp1666
a(I4
I6
tp1667
a(I6
I7
tp1668
a(I6
I6
tp1669
a(I4
I2
tp1670
a(I5
I3
tp1671
a(I2
I1
tp1672
a(I3
I2
tp1673
a(I3
I2
tp1674
a(I6
I8
tp1675
a(I4
I2
tp1676
a(I5
I4
tp1677
a(I4
I2
tp1678
a(I6
I6
tp1679
a(I5
I7
tp1680
a(I4
I2
tp1681
a(I6
I8
tp1682
a(I6
I8
tp1683
a(I5
I3
tp1684
a(I6
I8
tp1685
a(I5
I3
tp1686
a(I5
I3
tp1687
a(I4
I2
tp1688
a(I4
I2
tp1689
a(I5
I4
tp1690
a(I5
I3
tp1691
a(I2
I2
tp1692
a(I4
I4
tp1693
a(I6
I6
tp1694
a(I4
I3
tp1695
a(I5
I3
tp1696
a(I4
I2
tp1697
a(I5
I3
tp1698
a(I4
I4
tp1699
a(I5
I8
tp1700
a(I8
I9
tp1701
a(I6
I8
tp1702
a(I5
I4
tp1703
a(I6
I8
tp1704
a(I5
I4
tp1705
a(I2
I1
tp1706
a(I8
I9
tp1707
a(I5
I3
tp1708
a(I7
I7
tp1709
a(I4
I2
tp1710
a(I2
I2
tp1711
a(I6
I8
tp1712
a(I5
I7
tp1713
a(I5
I3
tp1714
a(I5
I7
tp1715
a(I6
I6
tp1716
a(I3
I2
tp1717
a(I3
I2
tp1718
a(I3
I2
tp1719
a(I3
I2
tp1720
a(I3
I2
tp1721
a(I5
I8
tp1722
a(I2
I2
tp1723
a(I4
I2
tp1724
a(I3
I1
tp1725
a(I5
I5
tp1726
a(I5
I4
tp1727
a(I7
I9
tp1728
a(I5
I4
tp1729
a(I5
I4
tp1730
a(I6
I9
tp1731
a(I7
I8
tp1732
a(I5
I4
tp1733
a(I5
I4
tp1734
a(I4
I2
tp1735
a(I4
I4
tp1736
a(I3
I5
tp1737
a(I4
I4
tp1738
a(I4
I4
tp1739
a(I5
I8
tp1740
a(I5
I8
tp1741
a(I3
I5
tp1742
a(I3
I5
tp1743
a(I5
I4
tp1744
a(I5
I4
tp1745
a(I5
I5
tp1746
a(I3
I2
tp1747
a(I6
I8
tp1748
a(I3
I3
tp1749
a(I7
I9
tp1750
a(I5
I7
tp1751
a(I7
I9
tp1752
a(I2
I2
tp1753
a(I5
I5
tp1754
a(I5
I3
tp1755
a(I2
I3
tp1756
a(I4
I4
tp1757
a(I5
I3
tp1758
a(I4
I6
tp1759
a(I5
I3
tp1760
a(I5
I4
tp1761
a(I4
I2
tp1762
a(I7
I9
tp1763
a(I5
I4
tp1764
a(I5
I5
tp1765
a(I5
I4
tp1766
a(I5
I4
tp1767
asI7
(lp1768
(I2
I1
tp1769
a(I7
I5
tp1770
a(I2
I1
tp1771
a(I5
I4
tp1772
a(I3
I1
tp1773
a(I5
I4
tp1774
a(I4
I5
tp1775
a(I4
I4
tp1776
a(I6
I8
tp1777
a(I2
I1
tp1778
a(I4
I2
tp1779
a(I5
I3
tp1780
a(I7
I9
tp1781
a(I8
I6
tp1782
a(I7
I9
tp1783
a(I5
I5
tp1784
a(I6
I5
tp1785
a(I5
I7
tp1786
a(I5
I8
tp1787
a(I6
I8
tp1788
a(I4
I6
tp1789
a(I6
I4
tp1790
a(I4
I3
tp1791
a(I5
I3
tp1792
a(I3
I6
tp1793
a(I6
I5
tp1794
a(I3
I7
tp1795
a(I5
I4
tp1796
a(I4
I6
tp1797
a(I3
I2
tp1798
a(I5
I3
tp1799
a(I4
I7
tp1800
a(I6
I9
tp1801
a(I2
I1
tp1802
a(I3
I2
tp1803
a(I3
I3
tp1804
a(I6
I8
tp1805
a(I6
I9
tp1806
a(I4
I3
tp1807
a(I6
I5
tp1808
a(I5
I4
tp1809
a(I4
I3
tp1810
a(I6
I5
tp1811
a(I5
I4
tp1812
a(I6
I6
tp1813
a(I6
I6
tp1814
a(I6
I6
tp1815
a(I4
I5
tp1816
a(I4
I2
tp1817
a(I5
I3
tp1818
a(I5
I3
tp1819
a(I5
I7
tp1820
a(I5
I4
tp1821
a(I5
I7
tp1822
a(I5
I4
tp1823
a(I6
I8
tp1824
a(I5
I4
tp1825
a(I8
I9
tp1826
a(I4
I3
tp1827
a(I5
I8
tp1828
a(I6
I8
tp1829
a(I5
I8
tp1830
a(I5
I3
tp1831
a(I4
I4
tp1832
a(I3
I5
tp1833
a(I7
I9
tp1834
a(I4
I7
tp1835
a(I5
I4
tp1836
a(I6
I5
tp1837
a(I6
I5
tp1838
a(I5
I9
tp1839
a(I4
I2
tp1840
a(I4
I2
tp1841
a(I2
I1
tp1842
a(I4
I2
tp1843
a(I5
I4
tp1844
a(I7
I9
tp1845
a(I4
I7
tp1846
a(I2
I2
tp1847
a(I5
I3
tp1848
a(I3
I2
tp1849
a(I4
I5
tp1850
a(I3
I2
tp1851
a(I4
I2
tp1852
a(I7
I8
tp1853
a(I3
I3
tp1854
a(I7
I6
tp1855
a(I7
I6
tp1856
a(I7
I6
tp1857
a(I4
I2
tp1858
a(I5
I5
tp1859
a(I4
I3
tp1860
a(I5
I5
tp1861
a(I5
I3
tp1862
a(I5
I3
tp1863
a(I6
I8
tp1864
a(I6
I8
tp1865
a(I5
I4
tp1866
a(I4
I2
tp1867
a(I7
I9
tp1868
a(I6
I8
tp1869
a(I2
I1
tp1870
a(I5
I3
tp1871
a(I4
I2
tp1872
a(I4
I3
tp1873
a(I4
I2
tp1874
a(I5
I4
tp1875
a(I4
I2
tp1876
a(I4
I2
tp1877
a(I4
I2
tp1878
a(I4
I3
tp1879
a(I5
I5
tp1880
a(I7
I9
tp1881
a(I6
I5
tp1882
a(I4
I2
tp1883
a(I6
I8
tp1884
a(I3
I2
tp1885
a(I2
I2
tp1886
a(I6
I8
tp1887
a(I4
I2
tp1888
a(I3
I3
tp1889
a(I2
I1
tp1890
a(I5
I3
tp1891
a(I5
I3
tp1892
a(I7
I9
tp1893
a(I3
I4
tp1894
a(I4
I5
tp1895
a(I4
I3
tp1896
a(I3
I2
tp1897
a(I9
I9
tp1898
a(I4
I7
tp1899
a(I4
I3
tp1900
a(I8
I9
tp1901
a(I3
I4
tp1902
a(I5
I7
tp1903
a(I2
I1
tp1904
a(I4
I7
tp1905
a(I3
I4
tp1906
a(I4
I4
tp1907
a(I3
I1
tp1908
a(I5
I4
tp1909
a(I5
I3
tp1910
a(I4
I3
tp1911
a(I4
I3
tp1912
a(I5
I7
tp1913
a(I2
I1
tp1914
a(I5
I4
tp1915
a(I3
I2
tp1916
a(I2
I1
tp1917
a(I4
I2
tp1918
a(I4
I2
tp1919
a(I5
I4
tp1920
a(I4
I2
tp1921
a(I4
I2
tp1922
a(I4
I2
tp1923
a(I3
I2
tp1924
a(I3
I1
tp1925
a(I4
I4
tp1926
a(I5
I5
tp1927
a(I3
I2
tp1928
a(I6
I5
tp1929
a(I7
I8
tp1930
a(I7
I8
tp1931
a(I3
I6
tp1932
a(I6
I8
tp1933
a(I4
I3
tp1934
a(I2
I1
tp1935
a(I5
I3
tp1936
a(I4
I2
tp1937
a(I2
I2
tp1938
a(I5
I4
tp1939
a(I4
I2
tp1940
a(I4
I2
tp1941
a(I5
I4
tp1942
a(I6
I8
tp1943
a(I5
I3
tp1944
a(I2
I1
tp1945
a(I2
I1
tp1946
a(I2
I1
tp1947
a(I3
I2
tp1948
a(I8
I9
tp1949
a(I5
I7
tp1950
a(I2
I3
tp1951
a(I2
I3
tp1952
a(I2
I3
tp1953
a(I4
I2
tp1954
a(I2
I3
tp1955
a(I7
I6
tp1956
a(I4
I4
tp1957
a(I8
I9
tp1958
a(I8
I9
tp1959
a(I6
I8
tp1960
a(I6
I6
tp1961
a(I3
I3
tp1962
a(I4
I2
tp1963
a(I3
I1
tp1964
a(I4
I3
tp1965
a(I6
I3
tp1966
a(I4
I3
tp1967
a(I6
I3
tp1968
a(I4
I3
tp1969
a(I2
I2
tp1970
a(I4
I7
tp1971
a(I6
I8
tp1972
a(I7
I9
tp1973
a(I6
I9
tp1974
a(I2
I1
tp1975
a(I5
I7
tp1976
a(I5
I8
tp1977
a(I5
I7
tp1978
a(I4
I7
tp1979
a(I6
I9
tp1980
a(I3
I3
tp1981
a(I6
I3
tp1982
a(I5
I3
tp1983
a(I5
I3
tp1984
a(I4
I2
tp1985
a(I5
I7
tp1986
a(I5
I3
tp1987
a(I5
I3
tp1988
a(I4
I3
tp1989
a(I5
I4
tp1990
a(I4
I2
tp1991
a(I6
I5
tp1992
a(I5
I3
tp1993
a(I3
I5
tp1994
a(I3
I1
tp1995
a(I5
I8
tp1996
a(I5
I4
tp1997
a(I2
I1
tp1998
a(I4
I4
tp1999
a(I6
I4
tp2000
a(I3
I3
tp2001
a(I6
I8
tp2002
a(I5
I3
tp2003
a(I2
I1
tp2004
a(I6
I6
tp2005
a(I6
I6
tp2006
a(I5
I3
tp2007
a(I5
I3
tp2008
a(I4
I2
tp2009
a(I4
I2
tp2010
a(I3
I3
tp2011
a(I5
I3
tp2012
a(I7
I7
tp2013
a(I6
I6
tp2014
a(I4
I2
tp2015
a(I3
I2
tp2016
a(I5
I4
tp2017
a(I5
I3
tp2018
a(I3
I2
tp2019
a(I3
I2
tp2020
a(I3
I2
tp2021
a(I4
I2
tp2022
a(I5
I3
tp2023
a(I5
I5
tp2024
a(I5
I3
tp2025
a(I4
I2
tp2026
a(I5
I3
tp2027
a(I4
I2
tp2028
a(I6
I7
tp2029
a(I8
I9
tp2030
a(I5
I4
tp2031
a(I5
I3
tp2032
a(I3
I3
tp2033
a(I3
I2
tp2034
a(I5
I8
tp2035
a(I5
I3
tp2036
a(I4
I4
tp2037
a(I6
I8
tp2038
a(I5
I3
tp2039
a(I2
I1
tp2040
a(I5
I3
tp2041
a(I6
I6
tp2042
a(I7
I8
tp2043
a(I2
I1
tp2044
a(I6
I8
tp2045
a(I3
I3
tp2046
a(I4
I2
tp2047
a(I5
I3
tp2048
a(I5
I5
tp2049
a(I8
I9
tp2050
a(I5
I8
tp2051
a(I5
I3
tp2052
a(I4
I1
tp2053
a(I5
I3
tp2054
a(I3
I5
tp2055
a(I2
I1
tp2056
a(I4
I3
tp2057
a(I4
I2
tp2058
a(I4
I2
tp2059
a(I2
I2
tp2060
a(I5
I5
tp2061
a(I3
I1
tp2062
a(I5
I5
tp2063
a(I5
I5
tp2064
asI8
(lp2065
(I5
I4
tp2066
a(I5
I3
tp2067
a(I5
I3
tp2068
a(I4
I3
tp2069
a(I6
I7
tp2070
a(I6
I7
tp2071
a(I8
I9
tp2072
a(I4
I2
tp2073
a(I2
I1
tp2074
a(I4
I2
tp2075
a(I7
I8
tp2076
a(I4
I2
tp2077
a(I5
I3
tp2078
a(I4
I3
tp2079
a(I4
I3
tp2080
a(I5
I3
tp2081
a(I7
I8
tp2082
a(I5
I4
tp2083
a(I4
I2
tp2084
a(I6
I5
tp2085
a(I4
I2
tp2086
a(I4
I2
tp2087
a(I2
I3
tp2088
a(I3
I6
tp2089
a(I2
I1
tp2090
a(I2
I1
tp2091
a(I5
I4
tp2092
a(I4
I7
tp2093
a(I4
I2
tp2094
a(I4
I2
tp2095
a(I3
I5
tp2096
a(I5
I6
tp2097
a(I4
I2
tp2098
a(I4
I1
tp2099
a(I3
I1
tp2100
a(I5
I4
tp2101
a(I4
I2
tp2102
a(I3
I3
tp2103
a(I4
I7
tp2104
a(I4
I4
tp2105
a(I2
I1
tp2106
a(I4
I4
tp2107
a(I6
I5
tp2108
a(I7
I7
tp2109
a(I7
I9
tp2110
a(I5
I5
tp2111
a(I6
I6
tp2112
a(I4
I4
tp2113
a(I7
I9
tp2114
a(I6
I6
tp2115
a(I9
I9
tp2116
a(I2
I2
tp2117
a(I5
I3
tp2118
a(I3
I1
tp2119
a(I4
I2
tp2120
a(I2
I1
tp2121
a(I6
I9
tp2122
a(I4
I4
tp2123
a(I4
I4
tp2124
a(I4
I2
tp2125
a(I5
I3
tp2126
a(I2
I2
tp2127
a(I5
I3
tp2128
a(I3
I1
tp2129
a(I3
I1
tp2130
a(I2
I1
tp2131
a(I4
I2
tp2132
a(I4
I2
tp2133
a(I6
I6
tp2134
a(I6
I9
tp2135
a(I5
I7
tp2136
a(I3
I3
tp2137
a(I5
I3
tp2138
a(I7
I9
tp2139
a(I5
I3
tp2140
a(I5
I3
tp2141
a(I8
I9
tp2142
a(I4
I2
tp2143
a(I6
I1
tp2144
a(I5
I1
tp2145
a(I4
I2
tp2146
a(I5
I3
tp2147
a(I4
I2
tp2148
a(I5
I3
tp2149
a(I5
I5
tp2150
a(I4
I3
tp2151
a(I5
I5
tp2152
a(I5
I3
tp2153
a(I7
I8
tp2154
a(I6
I4
tp2155
a(I6
I6
tp2156
a(I5
I3
tp2157
a(I4
I3
tp2158
a(I6
I4
tp2159
a(I7
I9
tp2160
a(I6
I5
tp2161
a(I8
I8
tp2162
a(I3
I2
tp2163
a(I7
I8
tp2164
a(I7
I8
tp2165
a(I4
I2
tp2166
a(I7
I6
tp2167
a(I6
I5
tp2168
a(I2
I1
tp2169
a(I2
I1
tp2170
a(I5
I4
tp2171
a(I4
I4
tp2172
a(I5
I4
tp2173
a(I2
I1
tp2174
a(I2
I1
tp2175
a(I6
I8
tp2176
a(I5
I3
tp2177
a(I6
I8
tp2178
a(I2
I1
tp2179
a(I4
I7
tp2180
a(I5
I1
tp2181
a(I4
I2
tp2182
a(I6
I6
tp2183
a(I5
I6
tp2184
a(I5
I3
tp2185
a(I6
I9
tp2186
a(I6
I9
tp2187
a(I5
I4
tp2188
a(I2
I2
tp2189
a(I5
I9
tp2190
a(I4
I7
tp2191
a(I5
I3
tp2192
a(I7
I8
tp2193
a(I4
I2
tp2194
a(I8
I9
tp2195
a(I4
I4
tp2196
a(I5
I3
tp2197
a(I5
I3
tp2198
a(I5
I3
tp2199
a(I5
I7
tp2200
a(I7
I9
tp2201
a(I7
I9
tp2202
a(I4
I4
tp2203
a(I5
I3
tp2204
a(I4
I2
tp2205
a(I3
I5
tp2206
a(I5
I7
tp2207
a(I5
I3
tp2208
a(I6
I6
tp2209
a(I6
I6
tp2210
a(I4
I2
tp2211
a(I5
I4
tp2212
a(I7
I9
tp2213
a(I2
I1
tp2214
a(I6
I5
tp2215
a(I9
I9
tp2216
a(I7
I9
tp2217
a(I4
I4
tp2218
a(I3
I3
tp2219
a(I5
I4
tp2220
a(I5
I3
tp2221
a(I4
I3
tp2222
a(I5
I4
tp2223
a(I3
I3
tp2224
a(I2
I1
tp2225
a(I2
I1
tp2226
a(I5
I3
tp2227
a(I5
I3
tp2228
a(I8
I9
tp2229
a(I4
I7
tp2230
a(I6
I9
tp2231
a(I4
I7
tp2232
a(I2
I2
tp2233
a(I4
I3
tp2234
a(I4
I2
tp2235
a(I4
I4
tp2236
a(I5
I3
tp2237
a(I5
I3
tp2238
a(I7
I4
tp2239
a(I4
I2
tp2240
a(I2
I1
tp2241
a(I5
I5
tp2242
a(I7
I9
tp2243
a(I7
I9
tp2244
a(I4
I2
tp2245
a(I4
I2
tp2246
a(I8
I9
tp2247
a(I6
I6
tp2248
a(I5
I3
tp2249
a(I4
I2
tp2250
a(I2
I1
tp2251
a(I4
I2
tp2252
a(I3
I3
tp2253
a(I4
I3
tp2254
a(I2
I1
tp2255
a(I4
I2
tp2256
a(I5
I4
tp2257
a(I4
I3
tp2258
a(I3
I5
tp2259
a(I4
I2
tp2260
a(I4
I2
tp2261
a(I5
I4
tp2262
a(I4
I3
tp2263
a(I4
I2
tp2264
a(I7
I9
tp2265
a(I5
I7
tp2266
a(I4
I3
tp2267
a(I5
I7
tp2268
a(I4
I7
tp2269
a(I4
I3
tp2270
a(I4
I3
tp2271
a(I4
I7
tp2272
a(I4
I7
tp2273
a(I4
I3
tp2274
a(I5
I8
tp2275
a(I4
I3
tp2276
a(I5
I4
tp2277
a(I3
I2
tp2278
a(I4
I3
tp2279
a(I5
I4
tp2280
a(I4
I3
tp2281
a(I5
I4
tp2282
a(I4
I3
tp2283
a(I4
I5
tp2284
a(I5
I3
tp2285
a(I4
I5
tp2286
a(I4
I4
tp2287
a(I7
I9
tp2288
a(I2
I1
tp2289
a(I5
I4
tp2290
a(I4
I7
tp2291
a(I4
I3
tp2292
a(I5
I7
tp2293
a(I4
I7
tp2294
a(I5
I7
tp2295
a(I4
I3
tp2296
a(I4
I2
tp2297
a(I2
I1
tp2298
a(I4
I2
tp2299
a(I5
I3
tp2300
a(I7
I7
tp2301
a(I7
I7
tp2302
a(I5
I4
tp2303
a(I5
I4
tp2304
a(I3
I1
tp2305
a(I5
I5
tp2306
a(I4
I2
tp2307
a(I3
I2
tp2308
a(I5
I5
tp2309
a(I4
I2
tp2310
a(I2
I2
tp2311
a(I4
I2
tp2312
a(I2
I1
tp2313
a(I2
I2
tp2314
a(I4
I2
tp2315
a(I2
I2
tp2316
a(I4
I2
tp2317
a(I2
I1
tp2318
a(I4
I2
tp2319
a(I5
I4
tp2320
a(I5
I3
tp2321
a(I5
I4
tp2322
a(I3
I5
tp2323
a(I6
I9
tp2324
a(I6
I8
tp2325
a(I4
I4
tp2326
a(I3
I2
tp2327
a(I5
I3
tp2328
a(I5
I4
tp2329
a(I5
I4
tp2330
a(I5
I7
tp2331
a(I8
I9
tp2332
a(I8
I9
tp2333
a(I5
I5
tp2334
a(I5
I5
tp2335
a(I5
I5
tp2336
a(I7
I9
tp2337
a(I7
I9
tp2338
a(I5
I4
tp2339
a(I2
I1
tp2340
a(I5
I4
tp2341
a(I6
I3
tp2342
a(I5
I3
tp2343
a(I4
I3
tp2344
a(I5
I5
tp2345
a(I5
I5
tp2346
a(I5
I5
tp2347
a(I5
I5
tp2348
a(I5
I5
tp2349
a(I4
I4
tp2350
a(I4
I4
tp2351
a(I6
I7
tp2352
a(I4
I5
tp2353
a(I3
I5
tp2354
a(I2
I2
tp2355
a(I6
I8
tp2356
a(I7
I9
tp2357
a(I3
I5
tp2358
a(I2
I1
tp2359
a(I3
I3
tp2360
a(I3
I3
tp2361
a(I3
I3
tp2362
a(I3
I3
tp2363
a(I2
I1
tp2364
a(I6
I6
tp2365
a(I3
I1
tp2366
a(I2
I1
tp2367
a(I2
I2
tp2368
a(I6
I9
tp2369
a(I7
I9
tp2370
a(I5
I3
tp2371
a(I5
I3
tp2372
a(I5
I2
tp2373
a(I2
I1
tp2374
a(I5
I3
tp2375
a(I4
I5
tp2376
a(I6
I8
tp2377
a(I2
I1
tp2378
a(I2
I1
tp2379
a(I4
I2
tp2380
a(I5
I3
tp2381
a(I5
I3
tp2382
a(I6
I3
tp2383
a(I6
I3
tp2384
a(I5
I3
tp2385
a(I4
I2
tp2386
a(I4
I2
tp2387
a(I4
I2
tp2388
a(I6
I8
tp2389
a(I4
I2
tp2390
a(I4
I2
tp2391
a(I4
I2
tp2392
a(I4
I3
tp2393
a(I4
I2
tp2394
a(I4
I2
tp2395
a(I6
I8
tp2396
a(I6
I7
tp2397
a(I4
I3
tp2398
a(I5
I5
tp2399
a(I6
I8
tp2400
a(I8
I9
tp2401
a(I4
I2
tp2402
a(I4
I2
tp2403
a(I6
I9
tp2404
a(I5
I7
tp2405
a(I4
I5
tp2406
a(I5
I3
tp2407
a(I4
I2
tp2408
a(I4
I2
tp2409
a(I2
I1
tp2410
a(I4
I2
tp2411
a(I4
I2
tp2412
a(I7
I9
tp2413
a(I4
I4
tp2414
a(I7
I9
tp2415
a(I3
I2
tp2416
a(I4
I3
tp2417
a(I5
I3
tp2418
a(I5
I3
tp2419
a(I6
I8
tp2420
a(I5
I5
tp2421
a(I5
I4
tp2422
a(I5
I4
tp2423
a(I7
I9
tp2424
a(I5
I8
tp2425
a(I5
I8
tp2426
a(I4
I2
tp2427
a(I2
I1
tp2428
a(I5
I3
tp2429
a(I5
I4
tp2430
a(I8
I9
tp2431
a(I2
I1
tp2432
a(I4
I2
tp2433
a(I5
I3
tp2434
a(I5
I5
tp2435
a(I4
I3
tp2436
a(I7
I8
tp2437
a(I5
I4
tp2438
a(I4
I2
tp2439
a(I6
I5
tp2440
a(I2
I1
tp2441
a(I4
I3
tp2442
a(I2
I1
tp2443
a(I5
I3
tp2444
a(I4
I3
tp2445
a(I2
I2
tp2446
a(I4
I4
tp2447
a(I6
I9
tp2448
a(I5
I5
tp2449
a(I5
I3
tp2450
a(I5
I4
tp2451
a(I3
I6
tp2452
a(I4
I2
tp2453
a(I6
I5
tp2454
a(I5
I6
tp2455
a(I3
I2
tp2456
a(I4
I3
tp2457
a(I9
I9
tp2458
a(I8
I9
tp2459
a(I8
I9
tp2460
a(I5
I3
tp2461
a(I3
I2
tp2462
a(I7
I9
tp2463
a(I6
I8
tp2464
a(I5
I4
tp2465
a(I6
I8
tp2466
a(I5
I4
tp2467
a(I5
I4
tp2468
a(I5
I4
tp2469
a(I5
I3
tp2470
asI9
(lp2471
(I4
I2
tp2472
a(I8
I8
tp2473
a(I6
I8
tp2474
a(I4
I2
tp2475
a(I4
I5
tp2476
a(I4
I4
tp2477
a(I4
I7
tp2478
a(I4
I2
tp2479
a(I2
I1
tp2480
a(I7
I4
tp2481
a(I5
I4
tp2482
a(I8
I9
tp2483
a(I6
I8
tp2484
a(I5
I7
tp2485
a(I5
I3
tp2486
a(I5
I3
tp2487
a(I4
I3
tp2488
a(I4
I3
tp2489
a(I5
I8
tp2490
a(I4
I7
tp2491
a(I5
I7
tp2492
a(I7
I9
tp2493
a(I5
I7
tp2494
a(I4
I3
tp2495
a(I4
I3
tp2496
a(I5
I3
tp2497
a(I4
I3
tp2498
a(I4
I7
tp2499
a(I3
I6
tp2500
a(I5
I8
tp2501
a(I5
I3
tp2502
a(I3
I3
tp2503
a(I3
I2
tp2504
a(I6
I7
tp2505
a(I2
I2
tp2506
a(I2
I1
tp2507
a(I4
I2
tp2508
a(I5
I4
tp2509
a(I4
I4
tp2510
a(I5
I3
tp2511
a(I5
I3
tp2512
a(I5
I3
tp2513
a(I4
I6
tp2514
a(I7
I9
tp2515
a(I2
I1
tp2516
a(I4
I2
tp2517
a(I4
I2
tp2518
a(I6
I7
tp2519
a(I3
I3
tp2520
a(I3
I3
tp2521
a(I2
I1
tp2522
a(I3
I3
tp2523
a(I7
I9
tp2524
a(I6
I5
tp2525
a(I8
I8
tp2526
a(I4
I6
tp2527
a(I8
I9
tp2528
a(I6
I8
tp2529
a(I8
I9
tp2530
a(I2
I1
tp2531
a(I5
I7
tp2532
a(I9
I9
tp2533
a(I6
I8
tp2534
a(I3
I1
tp2535
a(I4
I4
tp2536
a(I4
I2
tp2537
a(I6
I8
tp2538
a(I7
I6
tp2539
a(I7
I6
tp2540
a(I5
I4
tp2541
a(I5
I4
tp2542
a(I5
I4
tp2543
a(I7
I8
tp2544
a(I3
I2
tp2545
a(I4
I3
tp2546
a(I4
I3
tp2547
a(I8
I9
tp2548
a(I3
I3
tp2549
a(I4
I7
tp2550
a(I7
I8
tp2551
a(I6
I9
tp2552
a(I3
I1
tp2553
a(I5
I8
tp2554
a(I5
I5
tp2555
a(I2
I1
tp2556
a(I5
I4
tp2557
a(I3
I2
tp2558
a(I5
I4
tp2559
a(I2
I1
tp2560
a(I4
I1
tp2561
a(I5
I3
tp2562
a(I5
I4
tp2563
a(I4
I8
tp2564
a(I6
I5
tp2565
a(I5
I4
tp2566
a(I5
I4
tp2567
a(I6
I9
tp2568
a(I4
I6
tp2569
a(I4
I3
tp2570
a(I2
I1
tp2571
a(I7
I8
tp2572
a(I5
I5
tp2573
a(I6
I5
tp2574
a(I5
I4
tp2575
a(I5
I4
tp2576
a(I5
I4
tp2577
a(I4
I5
tp2578
a(I5
I4
tp2579
a(I5
I4
tp2580
a(I5
I5
tp2581
a(I4
I6
tp2582
a(I4
I6
tp2583
a(I6
I9
tp2584
a(I7
I9
tp2585
a(I5
I4
tp2586
a(I7
I9
tp2587
a(I5
I3
tp2588
a(I2
I3
tp2589
a(I5
I3
tp2590
a(I5
I3
tp2591
a(I6
I7
tp2592
a(I4
I2
tp2593
a(I4
I2
tp2594
a(I4
I2
tp2595
a(I5
I4
tp2596
a(I5
I4
tp2597
a(I5
I4
tp2598
a(I4
I2
tp2599
a(I4
I2
tp2600
a(I5
I4
tp2601
a(I3
I2
tp2602
a(I4
I2
tp2603
a(I4
I2
tp2604
a(I4
I2
tp2605
a(I4
I2
tp2606
a(I5
I4
tp2607
a(I5
I4
tp2608
a(I4
I2
tp2609
a(I6
I6
tp2610
a(I5
I5
tp2611
a(I5
I3
tp2612
a(I5
I4
tp2613
a(I5
I4
tp2614
a(I6
I5
tp2615
a(I5
I4
tp2616
a(I4
I3
tp2617
a(I6
I9
tp2618
a(I7
I9
tp2619
a(I5
I3
tp2620
a(I2
I1
tp2621
a(I5
I3
tp2622
a(I2
I1
tp2623
a(I6
I8
tp2624
a(I4
I4
tp2625
a(I2
I1
tp2626
a(I7
I9
tp2627
a(I5
I3
tp2628
a(I8
I9
tp2629
a(I3
I2
tp2630
asI10
(lp2631
(I4
I2
tp2632
a(I4
I2
tp2633
a(I4
I3
tp2634
a(I6
I9
tp2635
a(I4
I2
tp2636
a(I5
I4
tp2637
a(I4
I2
tp2638
a(I5
I2
tp2639
a(I5
I5
tp2640
a(I5
I3
tp2641
a(I7
I8
tp2642
a(I6
I6
tp2643
a(I8
I9
tp2644
a(I5
I4
tp2645
a(I2
I1
tp2646
a(I4
I3
tp2647
a(I5
I5
tp2648
a(I5
I5
tp2649
a(I4
I2
tp2650
a(I4
I2
tp2651
a(I4
I2
tp2652
a(I6
I5
tp2653
a(I6
I5
tp2654
a(I2
I1
tp2655
a(I4
I3
tp2656
a(I5
I4
tp2657
a(I6
I4
tp2658
a(I5
I4
tp2659
a(I5
I4
tp2660
a(I5
I4
tp2661
a(I7
I5
tp2662
a(I6
I8
tp2663
a(I6
I3
tp2664
a(I4
I2
tp2665
a(I6
I8
tp2666
a(I4
I2
tp2667
a(I6
I6
tp2668
a(I4
I2
tp2669
a(I5
I3
tp2670
a(I4
I2
tp2671
a(I5
I3
tp2672
a(I6
I7
tp2673
a(I5
I4
tp2674
a(I5
I5
tp2675
a(I5
I5
tp2676
a(I6
I5
tp2677
a(I5
I4
tp2678
a(I6
I9
tp2679
a(I6
I6
tp2680
a(I5
I3
tp2681
a(I8
I8
tp2682
a(I5
I5
tp2683
a(I4
I2
tp2684
a(I4
I2
tp2685
a(I5
I5
tp2686
a(I8
I9
tp2687
a(I8
I9
tp2688
a(I2
I1
tp2689
a(I6
I8
tp2690
a(I4
I2
tp2691
a(I3
I5
tp2692
a(I4
I3
tp2693
a(I5
I4
tp2694
a(I4
I2
tp2695
a(I6
I8
tp2696
a(I5
I5
tp2697
a(I4
I7
tp2698
a(I4
I8
tp2699
a(I2
I1
tp2700
a(I2
I1
tp2701
a(I5
I3
tp2702
a(I2
I1
tp2703
a(I4
I2
tp2704
a(I2
I1
tp2705
a(I4
I2
tp2706
a(I4
I2
tp2707
a(I6
I5
tp2708
a(I7
I7
tp2709
a(I2
I1
tp2710
a(I6
I5
tp2711
a(I4
I2
tp2712
a(I4
I2
tp2713
a(I4
I3
tp2714
a(I4
I1
tp2715
a(I4
I3
tp2716
a(I5
I7
tp2717
a(I5
I3
tp2718
a(I6
I7
tp2719
a(I2
I1
tp2720
a(I7
I8
tp2721
a(I5
I7
tp2722
a(I2
I2
tp2723
a(I6
I8
tp2724
a(I5
I5
tp2725
a(I7
I8
tp2726
a(I3
I2
tp2727
a(I3
I2
tp2728
a(I4
I2
tp2729
a(I4
I2
tp2730
a(I4
I3
tp2731
a(I4
I4
tp2732
a(I3
I2
tp2733
a(I3
I2
tp2734
a(I4
I2
tp2735
a(I5
I3
tp2736
a(I5
I3
tp2737
a(I7
I6
tp2738
a(I6
I9
tp2739
a(I5
I3
tp2740
a(I4
I2
tp2741
a(I3
I1
tp2742
a(I2
I1
tp2743
a(I6
I8
tp2744
a(I5
I4
tp2745
a(I2
I1
tp2746
a(I7
I6
tp2747
a(I2
I1
tp2748
a(I3
I1
tp2749
a(I7
I6
tp2750
a(I6
I6
tp2751
a(I6
I3
tp2752
a(I2
I1
tp2753
a(I2
I1
tp2754
a(I2
I1
tp2755
a(I6
I7
tp2756
a(I2
I1
tp2757
a(I4
I7
tp2758
a(I5
I4
tp2759
a(I3
I6
tp2760
a(I5
I6
tp2761
a(I3
I3
tp2762
a(I7
I9
tp2763
a(I4
I2
tp2764
a(I5
I3
tp2765
a(I4
I4
tp2766
a(I3
I2
tp2767
a(I6
I6
tp2768
a(I4
I3
tp2769
a(I3
I1
tp2770
a(I4
I2
tp2771
a(I6
I3
tp2772
a(I5
I3
tp2773
a(I3
I3
tp2774
a(I4
I2
tp2775
a(I2
I3
tp2776
a(I3
I3
tp2777
a(I2
I2
tp2778
a(I2
I2
tp2779
a(I3
I1
tp2780
a(I3
I1
tp2781
a(I3
I3
tp2782
a(I4
I2
tp2783
a(I5
I3
tp2784
a(I4
I2
tp2785
a(I7
I9
tp2786
a(I6
I8
tp2787
a(I8
I9
tp2788
a(I8
I9
tp2789
a(I6
I6
tp2790
a(I7
I6
tp2791
a(I5
I7
tp2792
a(I3
I3
tp2793
a(I7
I9
tp2794
a(I4
I6
tp2795
a(I5
I4
tp2796
a(I6
I7
tp2797
a(I4
I7
tp2798
a(I4
I7
tp2799
a(I4
I2
tp2800
a(I5
I3
tp2801
a(I5
I6
tp2802
a(I4
I1
tp2803
asI11
(lp2804
(I3
I2
tp2805
a(I4
I2
tp2806
a(I4
I2
tp2807
a(I4
I2
tp2808
a(I5
I8
tp2809
a(I5
I4
tp2810
a(I5
I3
tp2811
a(I6
I7
tp2812
a(I4
I4
tp2813
a(I4
I3
tp2814
a(I3
I3
tp2815
a(I4
I2
tp2816
a(I4
I2
tp2817
a(I5
I1
tp2818
a(I8
I9
tp2819
a(I6
I8
tp2820
a(I4
I2
tp2821
a(I4
I2
tp2822
a(I6
I8
tp2823
a(I4
I2
tp2824
a(I6
I1
tp2825
a(I4
I5
tp2826
a(I4
I1
tp2827
a(I5
I3
tp2828
a(I4
I2
tp2829
a(I2
I1
tp2830
a(I5
I5
tp2831
a(I4
I7
tp2832
a(I4
I2
tp2833
a(I7
I5
tp2834
a(I2
I1
tp2835
a(I7
I9
tp2836
a(I2
I2
tp2837
a(I3
I6
tp2838
a(I3
I6
tp2839
a(I4
I2
tp2840
a(I4
I2
tp2841
a(I5
I3
tp2842
a(I5
I5
tp2843
a(I6
I8
tp2844
a(I5
I7
tp2845
a(I2
I1
tp2846
a(I7
I8
tp2847
a(I7
I8
tp2848
a(I2
I1
tp2849
a(I2
I1
tp2850
a(I2
I1
tp2851
a(I5
I3
tp2852
a(I5
I3
tp2853
a(I6
I6
tp2854
a(I5
I4
tp2855
a(I7
I9
tp2856
a(I4
I2
tp2857
a(I3
I2
tp2858
a(I4
I6
tp2859
a(I5
I7
tp2860
a(I6
I8
tp2861
a(I4
I4
tp2862
a(I3
I1
tp2863
a(I6
I8
tp2864
a(I4
I6
tp2865
a(I3
I2
tp2866
a(I4
I4
tp2867
a(I4
I2
tp2868
a(I8
I9
tp2869
a(I4
I2
tp2870
a(I4
I2
tp2871
a(I4
I3
tp2872
a(I5
I3
tp2873
a(I4
I2
tp2874
a(I6
I9
tp2875
a(I7
I9
tp2876
a(I6
I9
tp2877
a(I3
I5
tp2878
a(I4
I6
tp2879
a(I6
I7
tp2880
a(I2
I2
tp2881
a(I6
I8
tp2882
a(I5
I6
tp2883
a(I5
I4
tp2884
a(I4
I3
tp2885
a(I5
I3
tp2886
a(I5
I7
tp2887
a(I5
I7
tp2888
a(I2
I1
tp2889
a(I4
I2
tp2890
a(I3
I2
tp2891
a(I2
I2
tp2892
a(I7
I9
tp2893
a(I5
I7
tp2894
a(I7
I9
tp2895
a(I3
I6
tp2896
a(I5
I5
tp2897
a(I5
I3
tp2898
a(I6
I9
tp2899
a(I6
I6
tp2900
a(I4
I2
tp2901
a(I5
I3
tp2902
a(I5
I3
tp2903
a(I6
I5
tp2904
a(I5
I5
tp2905
a(I5
I5
tp2906
a(I4
I2
tp2907
a(I5
I2
tp2908
a(I7
I8
tp2909
a(I5
I5
tp2910
a(I4
I2
tp2911
a(I4
I2
tp2912
a(I4
I2
tp2913
a(I2
I2
tp2914
a(I4
I2
tp2915
a(I3
I3
tp2916
a(I5
I4
tp2917
a(I3
I3
tp2918
a(I6
I5
tp2919
a(I6
I5
tp2920
a(I2
I2
tp2921
a(I5
I4
tp2922
a(I5
I5
tp2923
a(I4
I2
tp2924
a(I4
I2
tp2925
a(I4
I2
tp2926
a(I4
I2
tp2927
a(I6
I7
tp2928
a(I4
I4
tp2929
a(I6
I7
tp2930
a(I8
I9
tp2931
a(I4
I1
tp2932
a(I5
I4
tp2933
a(I9
I8
tp2934
a(I4
I5
tp2935
a(I2
I2
tp2936
a(I6
I6
tp2937
a(I6
I5
tp2938
a(I4
I2
tp2939
a(I4
I2
tp2940
a(I5
I3
tp2941
a(I2
I1
tp2942
a(I2
I1
tp2943
a(I4
I3
tp2944
a(I6
I7
tp2945
a(I6
I8
tp2946
a(I2
I2
tp2947
a(I4
I2
tp2948
a(I2
I1
tp2949
a(I5
I3
tp2950
a(I3
I2
tp2951
a(I4
I2
tp2952
a(I4
I3
tp2953
a(I2
I1
tp2954
a(I4
I7
tp2955
a(I2
I1
tp2956
a(I4
I3
tp2957
a(I4
I3
tp2958
a(I5
I5
tp2959
a(I2
I1
tp2960
a(I5
I8
tp2961
a(I6
I8
tp2962
a(I5
I3
tp2963
a(I3
I2
tp2964
a(I2
I2
tp2965
a(I4
I2
tp2966
a(I5
I4
tp2967
a(I5
I3
tp2968
a(I5
I3
tp2969
a(I5
I4
tp2970
a(I4
I2
tp2971
a(I3
I2
tp2972
a(I6
I8
tp2973
asI12
(lp2974
(I7
I8
tp2975
a(I4
I2
tp2976
a(I4
I2
tp2977
a(I8
I9
tp2978
a(I4
I2
tp2979
a(I4
I2
tp2980
a(I5
I5
tp2981
a(I6
I5
tp2982
a(I4
I6
tp2983
a(I4
I2
tp2984
a(I3
I4
tp2985
a(I5
I3
tp2986
a(I4
I2
tp2987
a(I5
I7
tp2988
a(I4
I2
tp2989
a(I4
I2
tp2990
a(I4
I2
tp2991
a(I5
I3
tp2992
a(I6
I5
tp2993
a(I6
I6
tp2994
a(I7
I7
tp2995
a(I5
I3
tp2996
a(I5
I4
tp2997
a(I5
I7
tp2998
a(I7
I7
tp2999
a(I6
I3
tp3000
a(I3
I5
tp3001
a(I6
I5
tp3002
a(I7
I9
tp3003
a(I7
I8
tp3004
a(I4
I3
tp3005
a(I6
I8
tp3006
a(I5
I7
tp3007
a(I5
I5
tp3008
a(I4
I3
tp3009
a(I3
I2
tp3010
a(I5
I5
tp3011
a(I6
I6
tp3012
a(I6
I4
tp3013
a(I2
I2
tp3014
a(I5
I5
tp3015
a(I2
I1
tp3016
a(I4
I2
tp3017
a(I2
I1
tp3018
a(I4
I2
tp3019
a(I3
I2
tp3020
a(I5
I4
tp3021
a(I6
I5
tp3022
a(I3
I1
tp3023
a(I4
I2
tp3024
a(I4
I2
tp3025
a(I4
I2
tp3026
a(I6
I8
tp3027
a(I3
I3
tp3028
a(I6
I3
tp3029
a(I5
I3
tp3030
a(I4
I2
tp3031
a(I4
I2
tp3032
a(I3
I5
tp3033
a(I6
I8
tp3034
a(I6
I6
tp3035
a(I2
I1
tp3036
a(I2
I1
tp3037
a(I7
I8
tp3038
a(I4
I2
tp3039
a(I7
I9
tp3040
a(I4
I3
tp3041
a(I3
I1
tp3042
a(I6
I8
tp3043
a(I7
I9
tp3044
a(I9
I8
tp3045
a(I8
I8
tp3046
a(I2
I1
tp3047
a(I2
I1
tp3048
a(I6
I4
tp3049
a(I7
I7
tp3050
a(I6
I7
tp3051
a(I4
I1
tp3052
a(I4
I2
tp3053
a(I5
I5
tp3054
a(I7
I9
tp3055
a(I4
I3
tp3056
a(I6
I5
tp3057
a(I5
I4
tp3058
a(I2
I1
tp3059
a(I5
I5
tp3060
a(I5
I4
tp3061
a(I6
I5
tp3062
a(I4
I2
tp3063
a(I4
I2
tp3064
a(I5
I4
tp3065
a(I4
I3
tp3066
a(I7
I7
tp3067
a(I5
I9
tp3068
a(I6
I8
tp3069
a(I3
I5
tp3070
a(I5
I5
tp3071
a(I2
I1
tp3072
a(I6
I6
tp3073
a(I4
I7
tp3074
a(I5
I7
tp3075
a(I5
I8
tp3076
a(I4
I3
tp3077
a(I4
I3
tp3078
a(I5
I7
tp3079
a(I8
I9
tp3080
a(I6
I7
tp3081
a(I6
I8
tp3082
a(I6
I6
tp3083
a(I5
I7
tp3084
a(I3
I2
tp3085
a(I5
I5
tp3086
a(I6
I8
tp3087
a(I6
I8
tp3088
a(I3
I2
tp3089
a(I5
I5
tp3090
a(I6
I8
tp3091
a(I3
I1
tp3092
a(I4
I3
tp3093
a(I6
I8
tp3094
a(I5
I4
tp3095
a(I6
I6
tp3096
a(I2
I1
tp3097
a(I5
I3
tp3098
a(I4
I2
tp3099
a(I3
I2
tp3100
a(I2
I2
tp3101
a(I6
I5
tp3102
a(I5
I4
tp3103
a(I4
I3
tp3104
a(I4
I3
tp3105
a(I4
I2
tp3106
a(I4
I3
tp3107
a(I4
I2
tp3108
a(I5
I4
tp3109
a(I5
I5
tp3110
a(I5
I5
tp3111
a(I6
I9
tp3112
a(I4
I1
tp3113
a(I4
I2
tp3114
a(I4
I7
tp3115
a(I5
I4
tp3116
a(I6
I5
tp3117
a(I5
I7
tp3118
a(I6
I9
tp3119
a(I5
I4
tp3120
a(I2
I1
tp3121
a(I3
I3
tp3122
a(I5
I3
tp3123
a(I3
I3
tp3124
a(I5
I4
tp3125
a(I6
I7
tp3126
a(I7
I9
tp3127
a(I5
I8
tp3128
a(I6
I4
tp3129
a(I8
I9
tp3130
a(I8
I9
tp3131
a(I4
I2
tp3132
a(I5
I1
tp3133
a(I6
I8
tp3134
a(I4
I2
tp3135
a(I4
I2
tp3136
a(I7
I9
tp3137
a(I6
I6
tp3138
a(I7
I9
tp3139
a(I4
I3
tp3140
a(I6
I5
tp3141
a(I7
I6
tp3142
a(I7
I9
tp3143
a(I8
I8
tp3144
a(I4
I2
tp3145
a(I4
I2
tp3146
a(I7
I6
tp3147
a(I4
I7
tp3148
a(I5
I7
tp3149
a(I4
I1
tp3150
a(I7
I8
tp3151
a(I4
I2
tp3152
a(I7
I9
tp3153
a(I7
I9
tp3154
a(I6
I4
tp3155
a(I2
I2
tp3156
a(I6
I8
tp3157
a(I5
I5
tp3158
a(I6
I8
tp3159
a(I6
I8
tp3160
a(I4
I5
tp3161
a(I7
I9
tp3162
a(I4
I2
tp3163
a(I2
I1
tp3164
a(I7
I9
tp3165
a(I5
I4
tp3166
a(I2
I2
tp3167
a(I5
I4
tp3168
a(I6
I9
tp3169
a(I4
I2
tp3170
a(I3
I1
tp3171
a(I5
I4
tp3172
a(I5
I4
tp3173
a(I4
I2
tp3174
a(I4
I2
tp3175
a(I4
I3
tp3176
a(I5
I3
tp3177
a(I6
I7
tp3178
a(I3
I2
tp3179
a(I5
I2
tp3180
a(I7
I8
tp3181
a(I6
I8
tp3182
a(I4
I2
tp3183
a(I4
I2
tp3184
a(I5
I3
tp3185
a(I5
I5
tp3186
a(I5
I3
tp3187
a(I7
I6
tp3188
a(I6
I8
tp3189
a(I2
I1
tp3190
a(I4
I2
tp3191
a(I3
I6
tp3192
a(I3
I6
tp3193
a(I7
I8
tp3194
a(I2
I2
tp3195
asI13
(lp3196
(I4
I3
tp3197
a(I5
I5
tp3198
a(I5
I3
tp3199
a(I4
I6
tp3200
a(I5
I4
tp3201
a(I5
I4
tp3202
a(I7
I6
tp3203
a(I8
I8
tp3204
a(I4
I3
tp3205
a(I5
I3
tp3206
a(I5
I3
tp3207
a(I8
I9
tp3208
a(I6
I4
tp3209
a(I7
I8
tp3210
a(I3
I2
tp3211
a(I3
I3
tp3212
a(I2
I2
tp3213
a(I7
I9
tp3214
a(I5
I6
tp3215
a(I4
I2
tp3216
a(I4
I2
tp3217
a(I4
I1
tp3218
a(I4
I2
tp3219
a(I4
I2
tp3220
a(I4
I2
tp3221
a(I6
I1
tp3222
a(I7
I8
tp3223
a(I6
I5
tp3224
a(I4
I3
tp3225
a(I5
I3
tp3226
a(I6
I8
tp3227
a(I5
I3
tp3228
a(I4
I3
tp3229
a(I4
I2
tp3230
a(I5
I3
tp3231
a(I5
I4
tp3232
a(I6
I8
tp3233
a(I6
I4
tp3234
a(I6
I4
tp3235
a(I3
I1
tp3236
a(I4
I2
tp3237
a(I6
I7
tp3238
a(I4
I2
tp3239
a(I2
I1
tp3240
a(I2
I1
tp3241
a(I6
I8
tp3242
a(I4
I3
tp3243
a(I6
I5
tp3244
a(I6
I5
tp3245
a(I2
I1
tp3246
a(I5
I4
tp3247
a(I2
I1
tp3248
a(I3
I5
tp3249
a(I3
I5
tp3250
a(I3
I5
tp3251
a(I6
I5
tp3252
a(I5
I8
tp3253
a(I4
I7
tp3254
a(I4
I2
tp3255
a(I4
I1
tp3256
a(I6
I9
tp3257
a(I5
I5
tp3258
a(I5
I5
tp3259
a(I4
I1
tp3260
a(I4
I1
tp3261
a(I2
I2
tp3262
a(I4
I2
tp3263
a(I3
I5
tp3264
a(I3
I5
tp3265
a(I2
I1
tp3266
a(I2
I1
tp3267
a(I5
I4
tp3268
a(I5
I4
tp3269
a(I6
I5
tp3270
a(I6
I3
tp3271
a(I2
I1
tp3272
a(I5
I2
tp3273
a(I4
I2
tp3274
a(I4
I3
tp3275
a(I5
I3
tp3276
a(I6
I9
tp3277
a(I8
I9
tp3278
a(I4
I2
tp3279
a(I4
I2
tp3280
a(I6
I8
tp3281
a(I3
I2
tp3282
a(I2
I1
tp3283
a(I3
I2
tp3284
a(I3
I2
tp3285
a(I3
I2
tp3286
a(I3
I2
tp3287
a(I3
I2
tp3288
a(I4
I2
tp3289
a(I4
I2
tp3290
a(I2
I1
tp3291
a(I3
I2
tp3292
a(I6
I8
tp3293
a(I6
I8
tp3294
a(I4
I2
tp3295
a(I6
I6
tp3296
a(I7
I8
tp3297
a(I5
I7
tp3298
a(I4
I3
tp3299
a(I4
I2
tp3300
a(I2
I2
tp3301
a(I7
I9
tp3302
a(I5
I7
tp3303
a(I7
I9
tp3304
a(I7
I9
tp3305
a(I6
I9
tp3306
a(I4
I7
tp3307
a(I7
I9
tp3308
a(I3
I1
tp3309
a(I6
I6
tp3310
a(I6
I6
tp3311
a(I5
I3
tp3312
a(I2
I1
tp3313
a(I5
I5
tp3314
a(I4
I6
tp3315
a(I6
I8
tp3316
a(I4
I2
tp3317
a(I2
I1
tp3318
a(I5
I4
tp3319
a(I4
I2
tp3320
a(I5
I2
tp3321
a(I5
I4
tp3322
a(I5
I9
tp3323
a(I7
I9
tp3324
a(I6
I7
tp3325
a(I4
I2
tp3326
a(I6
I7
tp3327
a(I6
I5
tp3328
a(I4
I3
tp3329
a(I4
I1
tp3330
a(I5
I3
tp3331
a(I5
I7
tp3332
a(I5
I4
tp3333
a(I4
I2
tp3334
a(I5
I4
tp3335
a(I5
I3
tp3336
a(I2
I2
tp3337
a(I4
I2
tp3338
a(I5
I4
tp3339
a(I5
I4
tp3340
a(I5
I3
tp3341
a(I5
I3
tp3342
a(I2
I1
tp3343
a(I5
I7
tp3344
a(I4
I6
tp3345
a(I8
I9
tp3346
a(I4
I2
tp3347
a(I5
I7
tp3348
asI14
(lp3349
(I4
I7
tp3350
a(I4
I2
tp3351
a(I5
I1
tp3352
a(I4
I2
tp3353
a(I5
I3
tp3354
a(I5
I3
tp3355
a(I3
I3
tp3356
a(I6
I8
tp3357
a(I3
I2
tp3358
a(I3
I4
tp3359
a(I6
I8
tp3360
a(I7
I9
tp3361
a(I5
I4
tp3362
a(I4
I2
tp3363
a(I6
I6
tp3364
a(I6
I8
tp3365
a(I6
I8
tp3366
a(I5
I4
tp3367
a(I5
I4
tp3368
a(I5
I4
tp3369
a(I3
I2
tp3370
a(I4
I3
tp3371
a(I2
I1
tp3372
a(I2
I1
tp3373
a(I2
I2
tp3374
a(I5
I3
tp3375
a(I5
I3
tp3376
a(I5
I3
tp3377
a(I3
I1
tp3378
a(I3
I1
tp3379
a(I4
I2
tp3380
a(I6
I8
tp3381
a(I5
I8
tp3382
a(I5
I3
tp3383
a(I4
I7
tp3384
a(I7
I7
tp3385
a(I4
I2
tp3386
a(I3
I1
tp3387
a(I6
I3
tp3388
a(I5
I5
tp3389
a(I6
I8
tp3390
a(I6
I4
tp3391
a(I2
I2
tp3392
a(I6
I8
tp3393
a(I5
I9
tp3394
a(I5
I3
tp3395
a(I5
I4
tp3396
a(I6
I5
tp3397
a(I2
I1
tp3398
a(I7
I9
tp3399
a(I4
I3
tp3400
a(I4
I3
tp3401
a(I5
I2
tp3402
a(I6
I8
tp3403
a(I5
I7
tp3404
a(I5
I8
tp3405
a(I5
I4
tp3406
a(I2
I2
tp3407
a(I5
I5
tp3408
a(I5
I5
tp3409
a(I9
I6
tp3410
a(I5
I3
tp3411
a(I5
I3
tp3412
a(I3
I3
tp3413
a(I7
I9
tp3414
a(I4
I4
tp3415
a(I5
I4
tp3416
a(I2
I1
tp3417
a(I5
I4
tp3418
a(I9
I9
tp3419
a(I4
I2
tp3420
a(I4
I2
tp3421
a(I5
I3
tp3422
a(I4
I2
tp3423
a(I5
I3
tp3424
a(I5
I3
tp3425
a(I4
I2
tp3426
a(I6
I7
tp3427
a(I3
I1
tp3428
a(I7
I8
tp3429
a(I5
I3
tp3430
a(I6
I8
tp3431
a(I5
I3
tp3432
a(I5
I3
tp3433
a(I3
I2
tp3434
a(I4
I2
tp3435
a(I4
I3
tp3436
a(I8
I9
tp3437
a(I6
I5
tp3438
a(I5
I8
tp3439
a(I5
I4
tp3440
a(I5
I4
tp3441
a(I5
I4
tp3442
a(I5
I4
tp3443
a(I5
I3
tp3444
a(I6
I5
tp3445
a(I5
I4
tp3446
a(I2
I1
tp3447
a(I2
I1
tp3448
a(I2
I1
tp3449
a(I3
I2
tp3450
a(I4
I2
tp3451
a(I7
I8
tp3452
a(I2
I1
tp3453
a(I5
I4
tp3454
a(I5
I5
tp3455
a(I5
I4
tp3456
a(I6
I6
tp3457
a(I5
I6
tp3458
a(I4
I2
tp3459
a(I2
I1
tp3460
a(I5
I4
tp3461
a(I7
I6
tp3462
a(I7
I6
tp3463
a(I3
I2
tp3464
a(I3
I2
tp3465
a(I5
I3
tp3466
a(I2
I2
tp3467
a(I7
I8
tp3468
a(I6
I4
tp3469
a(I2
I1
tp3470
a(I7
I8
tp3471
a(I5
I4
tp3472
a(I6
I5
tp3473
a(I4
I2
tp3474
a(I4
I3
tp3475
a(I6
I6
tp3476
a(I2
I2
tp3477
a(I5
I3
tp3478
a(I6
I9
tp3479
a(I3
I3
tp3480
a(I7
I8
tp3481
a(I8
I9
tp3482
a(I2
I1
tp3483
a(I7
I6
tp3484
a(I6
I5
tp3485
a(I4
I2
tp3486
a(I4
I2
tp3487
a(I4
I2
tp3488
a(I7
I8
tp3489
a(I3
I3
tp3490
a(I7
I9
tp3491
a(I7
I9
tp3492
a(I5
I3
tp3493
a(I7
I6
tp3494
a(I3
I1
tp3495
a(I4
I2
tp3496
a(I5
I4
tp3497
a(I5
I3
tp3498
a(I3
I1
tp3499
a(I6
I6
tp3500
a(I5
I3
tp3501
a(I4
I7
tp3502
a(I4
I7
tp3503
a(I5
I3
tp3504
a(I4
I3
tp3505
a(I5
I4
tp3506
a(I5
I3
tp3507
a(I6
I6
tp3508
a(I6
I5
tp3509
a(I4
I3
tp3510
a(I5
I1
tp3511
a(I5
I1
tp3512
a(I2
I1
tp3513
a(I5
I3
tp3514
a(I4
I2
tp3515
a(I5
I3
tp3516
a(I2
I1
tp3517
a(I4
I2
tp3518
a(I4
I2
tp3519
a(I2
I1
tp3520
a(I2
I2
tp3521
a(I2
I1
tp3522
a(I4
I2
tp3523
a(I4
I4
tp3524
a(I4
I2
tp3525
a(I6
I6
tp3526
a(I2
I2
tp3527
a(I8
I9
tp3528
a(I4
I3
tp3529
a(I2
I2
tp3530
a(I2
I2
tp3531
asI15
(lp3532
(I2
I2
tp3533
a(I5
I3
tp3534
a(I2
I1
tp3535
a(I2
I1
tp3536
a(I3
I6
tp3537
a(I6
I7
tp3538
a(I3
I6
tp3539
a(I2
I1
tp3540
a(I3
I6
tp3541
a(I2
I1
tp3542
a(I4
I3
tp3543
a(I2
I1
tp3544
a(I4
I1
tp3545
a(I3
I3
tp3546
a(I5
I3
tp3547
a(I4
I2
tp3548
a(I4
I3
tp3549
a(I4
I3
tp3550
a(I7
I9
tp3551
a(I8
I9
tp3552
a(I7
I9
tp3553
a(I3
I2
tp3554
a(I6
I7
tp3555
a(I5
I5
tp3556
a(I5
I8
tp3557
a(I5
I3
tp3558
a(I3
I4
tp3559
a(I6
I8
tp3560
a(I7
I9
tp3561
a(I5
I4
tp3562
a(I4
I3
tp3563
a(I5
I7
tp3564
a(I6
I7
tp3565
a(I6
I7
tp3566
a(I4
I3
tp3567
a(I5
I4
tp3568
a(I4
I2
tp3569
a(I2
I2
tp3570
a(I5
I3
tp3571
a(I4
I2
tp3572
a(I3
I1
tp3573
a(I4
I3
tp3574
a(I5
I4
tp3575
a(I5
I4
tp3576
a(I5
I3
tp3577
a(I4
I2
tp3578
a(I6
I5
tp3579
a(I2
I2
tp3580
a(I3
I2
tp3581
a(I7
I9
tp3582
a(I4
I2
tp3583
a(I4
I6
tp3584
a(I3
I5
tp3585
a(I4
I3
tp3586
a(I5
I3
tp3587
a(I3
I4
tp3588
a(I3
I3
tp3589
a(I6
I8
tp3590
a(I4
I4
tp3591
a(I5
I4
tp3592
a(I2
I2
tp3593
a(I7
I9
tp3594
a(I4
I3
tp3595
a(I2
I2
tp3596
a(I2
I1
tp3597
a(I5
I4
tp3598
a(I3
I2
tp3599
a(I4
I3
tp3600
a(I3
I6
tp3601
a(I2
I1
tp3602
a(I2
I2
tp3603
a(I5
I8
tp3604
a(I5
I8
tp3605
a(I3
I3
tp3606
a(I2
I1
tp3607
a(I2
I1
tp3608
a(I2
I1
tp3609
a(I2
I1
tp3610
a(I6
I6
tp3611
a(I6
I8
tp3612
a(I5
I3
tp3613
a(I5
I3
tp3614
a(I5
I5
tp3615
a(I3
I3
tp3616
a(I8
I9
tp3617
a(I6
I3
tp3618
a(I3
I3
tp3619
a(I7
I8
tp3620
a(I4
I2
tp3621
a(I4
I2
tp3622
a(I4
I2
tp3623
a(I4
I2
tp3624
a(I4
I2
tp3625
a(I2
I1
tp3626
a(I4
I2
tp3627
a(I4
I2
tp3628
a(I5
I4
tp3629
a(I7
I8
tp3630
a(I4
I3
tp3631
a(I5
I4
tp3632
a(I5
I5
tp3633
a(I4
I2
tp3634
a(I4
I2
tp3635
a(I4
I2
tp3636
a(I6
I5
tp3637
a(I5
I2
tp3638
a(I4
I2
tp3639
a(I5
I5
tp3640
a(I7
I7
tp3641
a(I6
I5
tp3642
a(I5
I4
tp3643
a(I5
I5
tp3644
a(I7
I9
tp3645
a(I6
I4
tp3646
a(I5
I6
tp3647
a(I5
I7
tp3648
a(I3
I6
tp3649
a(I4
I7
tp3650
a(I5
I4
tp3651
a(I4
I3
tp3652
a(I3
I2
tp3653
a(I5
I4
tp3654
a(I5
I7
tp3655
a(I3
I1
tp3656
a(I4
I2
tp3657
a(I7
I9
tp3658
a(I4
I3
tp3659
a(I4
I2
tp3660
a(I5
I7
tp3661
a(I4
I2
tp3662
a(I2
I2
tp3663
a(I6
I8
tp3664
a(I5
I1
tp3665
a(I4
I1
tp3666
a(I4
I3
tp3667
a(I7
I9
tp3668
a(I5
I4
tp3669
a(I6
I8
tp3670
a(I7
I6
tp3671
a(I6
I7
tp3672
a(I4
I2
tp3673
a(I3
I1
tp3674
a(I4
I3
tp3675
a(I2
I1
tp3676
a(I7
I9
tp3677
a(I8
I9
tp3678
a(I4
I2
tp3679
a(I5
I5
tp3680
a(I4
I2
tp3681
a(I7
I6
tp3682
a(I7
I6
tp3683
a(I4
I3
tp3684
a(I7
I8
tp3685
a(I3
I2
tp3686
a(I6
I8
tp3687
a(I5
I3
tp3688
a(I5
I5
tp3689
a(I6
I3
tp3690
a(I6
I8
tp3691
a(I4
I5
tp3692
a(I6
I8
tp3693
a(I5
I7
tp3694
a(I4
I2
tp3695
a(I6
I5
tp3696
a(I7
I7
tp3697
a(I5
I3
tp3698
a(I4
I2
tp3699
a(I4
I2
tp3700
a(I4
I2
tp3701
a(I5
I4
tp3702
a(I6
I8
tp3703
a(I6
I8
tp3704
a(I2
I1
tp3705
a(I4
I4
tp3706
a(I7
I8
tp3707
a(I6
I9
tp3708
a(I3
I2
tp3709
a(I4
I2
tp3710
a(I6
I9
tp3711
a(I4
I3
tp3712
a(I4
I3
tp3713
a(I6
I8
tp3714
a(I5
I3
tp3715
a(I7
I8
tp3716
a(I5
I4
tp3717
a(I6
I8
tp3718
a(I2
I1
tp3719
a(I6
I5
tp3720
a(I5
I4
tp3721
a(I6
I8
tp3722
a(I4
I3
tp3723
a(I5
I7
tp3724
a(I6
I4
tp3725
a(I6
I8
tp3726
a(I4
I2
tp3727
a(I6
I8
tp3728
a(I4
I2
tp3729
a(I3
I5
tp3730
a(I4
I2
tp3731
a(I4
I2
tp3732
a(I7
I8
tp3733
a(I6
I9
tp3734
a(I5
I4
tp3735
a(I4
I2
tp3736
a(I4
I2
tp3737
a(I5
I2
tp3738
a(I6
I8
tp3739
a(I4
I2
tp3740
a(I4
I2
tp3741
a(I6
I8
tp3742
a(I6
I8
tp3743
a(I6
I7
tp3744
a(I4
I3
tp3745
a(I4
I3
tp3746
a(I2
I2
tp3747
a(I2
I1
tp3748
a(I4
I6
tp3749
a(I6
I6
tp3750
a(I6
I8
tp3751
a(I5
I3
tp3752
a(I5
I3
tp3753
a(I5
I2
tp3754
a(I3
I2
tp3755
a(I7
I8
tp3756
a(I6
I8
tp3757
a(I3
I2
tp3758
a(I9
I1
tp3759
a(I4
I2
tp3760
a(I2
I2
tp3761
a(I4
I3
tp3762
a(I5
I5
tp3763
a(I4
I1
tp3764
a(I6
I5
tp3765
a(I6
I3
tp3766
a(I4
I2
tp3767
a(I3
I1
tp3768
a(I3
I3
tp3769
a(I3
I1
tp3770
a(I6
I8
tp3771
a(I5
I4
tp3772
a(I4
I6
tp3773
a(I2
I1
tp3774
a(I8
I9
tp3775
a(I2
I1
tp3776
a(I2
I2
tp3777
a(I4
I2
tp3778
a(I3
I3
tp3779
a(I4
I1
tp3780
a(I6
I7
tp3781
a(I7
I9
tp3782
a(I5
I3
tp3783
a(I7
I9
tp3784
a(I4
I2
tp3785
a(I7
I5
tp3786
a(I6
I4
tp3787
a(I7
I9
tp3788
a(I5
I3
tp3789
a(I5
I5
tp3790
a(I4
I2
tp3791
a(I7
I8
tp3792
a(I4
I3
tp3793
a(I6
I5
tp3794
a(I6
I5
tp3795
a(I2
I1
tp3796
a(I6
I8
tp3797
a(I4
I3
tp3798
a(I5
I4
tp3799
a(I8
I9
tp3800
a(I2
I1
tp3801
a(I6
I5
tp3802
a(I2
I1
tp3803
a(I7
I8
tp3804
a(I5
I4
tp3805
a(I5
I3
tp3806
a(I2
I1
tp3807
a(I7
I3
tp3808
a(I3
I3
tp3809
a(I6
I5
tp3810
a(I7
I4
tp3811
a(I2
I2
tp3812
a(I7
I8
tp3813
a(I4
I8
tp3814
a(I4
I2
tp3815
a(I6
I7
tp3816
a(I5
I7
tp3817
a(I6
I6
tp3818
a(I2
I1
tp3819
a(I6
I8
tp3820
a(I4
I3
tp3821
a(I5
I3
tp3822
a(I4
I1
tp3823
a(I7
I9
tp3824
a(I4
I6
tp3825
a(I5
I7
tp3826
a(I7
I9
tp3827
a(I7
I5
tp3828
a(I7
I8
tp3829
a(I5
I7
tp3830
a(I4
I2
tp3831
a(I3
I2
tp3832
a(I7
I8
tp3833
a(I5
I3
tp3834
a(I6
I6
tp3835
a(I6
I5
tp3836
a(I4
I3
tp3837
a(I2
I1
tp3838
a(I8
I9
tp3839
a(I4
I2
tp3840
a(I6
I9
tp3841
a(I6
I5
tp3842
a(I6
I5
tp3843
a(I6
I5
tp3844
a(I4
I2
tp3845
a(I3
I2
tp3846
a(I6
I5
tp3847
a(I5
I4
tp3848
a(I2
I1
tp3849
a(I5
I7
tp3850
a(I6
I8
tp3851
asI16
(lp3852
(I2
I2
tp3853
a(I9
I8
tp3854
a(I2
I1
tp3855
a(I4
I3
tp3856
a(I4
I2
tp3857
a(I5
I4
tp3858
a(I5
I4
tp3859
a(I8
I9
tp3860
a(I2
I2
tp3861
a(I2
I2
tp3862
a(I2
I1
tp3863
a(I5
I3
tp3864
a(I4
I4
tp3865
a(I4
I2
tp3866
a(I7
I6
tp3867
a(I3
I5
tp3868
a(I7
I9
tp3869
a(I6
I8
tp3870
a(I5
I3
tp3871
a(I5
I5
tp3872
a(I4
I3
tp3873
a(I5
I3
tp3874
a(I4
I2
tp3875
a(I8
I9
tp3876
a(I5
I3
tp3877
a(I5
I4
tp3878
a(I2
I1
tp3879
a(I4
I2
tp3880
a(I3
I3
tp3881
a(I5
I4
tp3882
a(I5
I4
tp3883
a(I2
I1
tp3884
a(I5
I5
tp3885
a(I4
I2
tp3886
a(I2
I1
tp3887
a(I3
I2
tp3888
a(I4
I2
tp3889
a(I2
I1
tp3890
a(I7
I9
tp3891
a(I6
I7
tp3892
a(I7
I8
tp3893
a(I6
I5
tp3894
a(I5
I4
tp3895
a(I3
I4
tp3896
a(I6
I8
tp3897
a(I5
I3
tp3898
a(I5
I8
tp3899
a(I6
I8
tp3900
a(I5
I9
tp3901
a(I3
I2
tp3902
a(I7
I9
tp3903
a(I7
I9
tp3904
a(I2
I1
tp3905
a(I6
I3
tp3906
a(I6
I6
tp3907
a(I4
I3
tp3908
a(I5
I2
tp3909
a(I2
I1
tp3910
a(I2
I1
tp3911
a(I4
I3
tp3912
a(I5
I8
tp3913
a(I3
I6
tp3914
a(I5
I3
tp3915
a(I6
I8
tp3916
a(I5
I3
tp3917
a(I7
I8
tp3918
a(I6
I4
tp3919
a(I5
I3
tp3920
a(I3
I3
tp3921
a(I4
I4
tp3922
a(I5
I2
tp3923
a(I6
I5
tp3924
a(I6
I5
tp3925
a(I4
I3
tp3926
a(I4
I2
tp3927
a(I5
I4
tp3928
a(I3
I2
tp3929
a(I2
I1
tp3930
a(I4
I2
tp3931
a(I3
I5
tp3932
a(I5
I3
tp3933
a(I5
I3
tp3934
a(I3
I2
tp3935
a(I2
I1
tp3936
a(I4
I2
tp3937
a(I6
I5
tp3938
a(I4
I5
tp3939
a(I6
I4
tp3940
a(I5
I4
tp3941
a(I4
I2
tp3942
a(I2
I1
tp3943
a(I3
I5
tp3944
a(I5
I4
tp3945
a(I5
I4
tp3946
a(I6
I5
tp3947
a(I6
I4
tp3948
a(I2
I3
tp3949
a(I5
I5
tp3950
a(I2
I1
tp3951
a(I5
I5
tp3952
a(I2
I1
tp3953
a(I2
I1
tp3954
a(I4
I3
tp3955
a(I4
I3
tp3956
a(I2
I1
tp3957
a(I6
I8
tp3958
a(I6
I5
tp3959
a(I6
I7
tp3960
a(I7
I7
tp3961
a(I5
I4
tp3962
a(I6
I5
tp3963
a(I9
I9
tp3964
a(I8
I9
tp3965
a(I3
I2
tp3966
a(I6
I3
tp3967
a(I3
I2
tp3968
a(I7
I9
tp3969
a(I4
I2
tp3970
a(I6
I5
tp3971
a(I6
I5
tp3972
a(I6
I5
tp3973
a(I7
I9
tp3974
a(I3
I3
tp3975
a(I2
I1
tp3976
a(I2
I2
tp3977
a(I3
I2
tp3978
a(I7
I5
tp3979
a(I8
I7
tp3980
a(I5
I7
tp3981
a(I3
I3
tp3982
a(I7
I6
tp3983
a(I2
I2
tp3984
a(I7
I6
tp3985
a(I5
I4
tp3986
a(I5
I4
tp3987
a(I6
I1
tp3988
a(I3
I2
tp3989
a(I3
I1
tp3990
a(I4
I2
tp3991
a(I4
I2
tp3992
a(I2
I1
tp3993
a(I6
I1
tp3994
a(I4
I2
tp3995
a(I6
I5
tp3996
a(I5
I4
tp3997
a(I5
I4
tp3998
a(I5
I4
tp3999
a(I6
I5
tp4000
a(I5
I2
tp4001
a(I2
I1
tp4002
a(I5
I4
tp4003
a(I5
I4
tp4004
a(I6
I1
tp4005
a(I9
I9
tp4006
a(I7
I9
tp4007
a(I5
I7
tp4008
a(I4
I1
tp4009
a(I2
I2
tp4010
a(I7
I8
tp4011
a(I4
I3
tp4012
a(I5
I3
tp4013
a(I4
I3
tp4014
a(I7
I9
tp4015
a(I2
I2
tp4016
a(I4
I3
tp4017
a(I4
I4
tp4018
a(I2
I1
tp4019
a(I2
I1
tp4020
a(I2
I1
tp4021
a(I4
I2
tp4022
a(I4
I2
tp4023
a(I8
I9
tp4024
a(I8
I9
tp4025
a(I3
I6
tp4026
a(I6
I7
tp4027
a(I4
I2
tp4028
a(I5
I8
tp4029
a(I4
I2
tp4030
a(I7
I8
tp4031
a(I3
I5
tp4032
a(I6
I5
tp4033
a(I6
I8
tp4034
a(I5
I3
tp4035
a(I6
I5
tp4036
a(I3
I2
tp4037
a(I7
I9
tp4038
a(I5
I8
tp4039
a(I7
I9
tp4040
a(I2
I1
tp4041
a(I4
I2
tp4042
a(I4
I2
tp4043
a(I6
I5
tp4044
a(I4
I3
tp4045
a(I4
I2
tp4046
a(I7
I7
tp4047
a(I3
I1
tp4048
a(I4
I2
tp4049
a(I6
I9
tp4050
a(I7
I9
tp4051
a(I6
I7
tp4052
a(I7
I9
tp4053
a(I3
I2
tp4054
a(I3
I2
tp4055
a(I4
I3
tp4056
a(I5
I4
tp4057
a(I2
I1
tp4058
a(I5
I3
tp4059
a(I5
I3
tp4060
a(I3
I3
tp4061
a(I3
I2
tp4062
a(I5
I3
tp4063
a(I5
I3
tp4064
a(I5
I3
tp4065
a(I2
I1
tp4066
a(I5
I8
tp4067
a(I5
I7
tp4068
a(I7
I8
tp4069
a(I6
I6
tp4070
a(I4
I2
tp4071
a(I6
I5
tp4072
a(I2
I1
tp4073
a(I5
I5
tp4074
a(I2
I1
tp4075
a(I6
I4
tp4076
a(I6
I4
tp4077
a(I4
I3
tp4078
a(I4
I7
tp4079
a(I4
I3
tp4080
a(I6
I9
tp4081
a(I5
I3
tp4082
a(I3
I3
tp4083
a(I4
I4
tp4084
a(I6
I3
tp4085
a(I5
I4
tp4086
a(I4
I2
tp4087
a(I4
I2
tp4088
a(I5
I1
tp4089
a(I4
I2
tp4090
a(I8
I7
tp4091
a(I5
I3
tp4092
a(I2
I1
tp4093
a(I4
I2
tp4094
a(I4
I2
tp4095
a(I7
I8
tp4096
a(I5
I4
tp4097
a(I7
I6
tp4098
a(I5
I2
tp4099
a(I5
I4
tp4100
a(I6
I8
tp4101
a(I2
I1
tp4102
a(I7
I8
tp4103
a(I5
I3
tp4104
a(I3
I1
tp4105
a(I5
I4
tp4106
a(I5
I3
tp4107
a(I4
I3
tp4108
a(I7
I7
tp4109
a(I7
I6
tp4110
a(I7
I8
tp4111
a(I6
I5
tp4112
a(I7
I6
tp4113
a(I6
I5
tp4114
a(I5
I7
tp4115
a(I3
I2
tp4116
a(I3
I6
tp4117
a(I4
I4
tp4118
a(I5
I3
tp4119
a(I5
I3
tp4120
a(I4
I6
tp4121
a(I6
I5
tp4122
a(I4
I2
tp4123
a(I4
I4
tp4124
a(I2
I2
tp4125
a(I4
I4
tp4126
asI17
(lp4127
(I2
I1
tp4128
a(I4
I3
tp4129
a(I5
I5
tp4130
a(I4
I6
tp4131
a(I7
I9
tp4132
a(I5
I4
tp4133
a(I5
I4
tp4134
a(I6
I7
tp4135
a(I3
I4
tp4136
a(I7
I8
tp4137
a(I3
I6
tp4138
a(I2
I1
tp4139
a(I2
I1
tp4140
a(I5
I5
tp4141
a(I4
I2
tp4142
a(I5
I7
tp4143
a(I9
I7
tp4144
a(I7
I6
tp4145
a(I6
I9
tp4146
a(I2
I2
tp4147
a(I7
I6
tp4148
a(I4
I2
tp4149
a(I4
I3
tp4150
a(I6
I8
tp4151
a(I4
I2
tp4152
a(I4
I2
tp4153
a(I4
I2
tp4154
a(I4
I2
tp4155
a(I5
I4
tp4156
a(I4
I4
tp4157
a(I6
I7
tp4158
a(I2
I1
tp4159
a(I9
I9
tp4160
a(I4
I2
tp4161
a(I6
I2
tp4162
a(I7
I8
tp4163
a(I4
I2
tp4164
a(I3
I1
tp4165
a(I6
I8
tp4166
a(I7
I9
tp4167
a(I7
I9
tp4168
a(I3
I3
tp4169
a(I4
I2
tp4170
a(I6
I5
tp4171
a(I7
I7
tp4172
a(I6
I9
tp4173
a(I6
I7
tp4174
a(I4
I7
tp4175
a(I4
I2
tp4176
a(I3
I3
tp4177
a(I6
I8
tp4178
a(I7
I7
tp4179
a(I6
I7
tp4180
a(I6
I8
tp4181
a(I5
I8
tp4182
a(I5
I4
tp4183
a(I7
I9
tp4184
a(I4
I2
tp4185
a(I6
I7
tp4186
a(I6
I7
tp4187
a(I3
I2
tp4188
a(I5
I7
tp4189
a(I2
I1
tp4190
a(I4
I2
tp4191
a(I7
I7
tp4192
a(I5
I4
tp4193
a(I6
I8
tp4194
a(I4
I2
tp4195
a(I2
I1
tp4196
a(I4
I2
tp4197
a(I6
I6
tp4198
a(I6
I7
tp4199
a(I6
I5
tp4200
a(I6
I7
tp4201
a(I3
I3
tp4202
a(I5
I3
tp4203
a(I5
I3
tp4204
a(I4
I3
tp4205
a(I6
I7
tp4206
a(I6
I8
tp4207
a(I7
I7
tp4208
a(I3
I3
tp4209
a(I4
I2
tp4210
a(I3
I3
tp4211
a(I4
I6
tp4212
a(I3
I6
tp4213
a(I7
I8
tp4214
a(I7
I9
tp4215
a(I5
I3
tp4216
a(I4
I2
tp4217
a(I6
I8
tp4218
a(I3
I1
tp4219
a(I4
I3
tp4220
a(I5
I3
tp4221
a(I7
I9
tp4222
a(I6
I7
tp4223
a(I4
I2
tp4224
a(I7
I7
tp4225
a(I3
I3
tp4226
a(I8
I9
tp4227
a(I6
I7
tp4228
a(I7
I8
tp4229
a(I4
I1
tp4230
a(I6
I4
tp4231
a(I2
I2
tp4232
a(I5
I3
tp4233
a(I4
I2
tp4234
a(I6
I7
tp4235
a(I6
I7
tp4236
a(I6
I7
tp4237
a(I4
I4
tp4238
a(I3
I2
tp4239
a(I7
I8
tp4240
a(I6
I3
tp4241
a(I4
I4
tp4242
a(I4
I4
tp4243
a(I7
I3
tp4244
a(I2
I2
tp4245
a(I6
I7
tp4246
a(I5
I3
tp4247
a(I4
I2
tp4248
a(I4
I2
tp4249
a(I4
I2
tp4250
a(I3
I2
tp4251
a(I4
I2
tp4252
a(I4
I2
tp4253
a(I6
I6
tp4254
a(I6
I8
tp4255
a(I4
I6
tp4256
a(I5
I3
tp4257
a(I5
I3
tp4258
a(I5
I3
tp4259
a(I5
I3
tp4260
a(I5
I3
tp4261
a(I4
I6
tp4262
a(I6
I3
tp4263
a(I4
I3
tp4264
a(I5
I8
tp4265
a(I2
I1
tp4266
a(I5
I3
tp4267
a(I5
I3
tp4268
a(I4
I2
tp4269
a(I2
I1
tp4270
a(I7
I8
tp4271
a(I4
I3
tp4272
a(I8
I9
tp4273
a(I5
I4
tp4274
a(I5
I4
tp4275
a(I6
I5
tp4276
a(I4
I6
tp4277
a(I5
I3
tp4278
a(I3
I3
tp4279
a(I4
I2
tp4280
a(I3
I1
tp4281
a(I3
I1
tp4282
a(I5
I4
tp4283
a(I4
I3
tp4284
a(I8
I9
tp4285
a(I7
I7
tp4286
a(I2
I1
tp4287
a(I3
I3
tp4288
a(I5
I4
tp4289
a(I7
I7
tp4290
a(I6
I8
tp4291
a(I3
I2
tp4292
a(I6
I5
tp4293
a(I5
I5
tp4294
a(I5
I7
tp4295
a(I2
I1
tp4296
a(I5
I3
tp4297
a(I2
I1
tp4298
a(I5
I3
tp4299
a(I5
I4
tp4300
a(I6
I8
tp4301
a(I4
I3
tp4302
a(I5
I3
tp4303
a(I5
I3
tp4304
a(I2
I2
tp4305
a(I7
I5
tp4306
a(I4
I2
tp4307
a(I5
I6
tp4308
a(I4
I2
tp4309
a(I7
I9
tp4310
a(I8
I9
tp4311
a(I7
I8
tp4312
a(I2
I2
tp4313
a(I6
I8
tp4314
a(I6
I4
tp4315
a(I6
I5
tp4316
a(I2
I1
tp4317
a(I4
I2
tp4318
a(I7
I8
tp4319
a(I5
I5
tp4320
a(I6
I3
tp4321
a(I5
I7
tp4322
a(I4
I4
tp4323
a(I7
I9
tp4324
a(I8
I3
tp4325
a(I6
I7
tp4326
a(I5
I3
tp4327
a(I5
I3
tp4328
a(I6
I7
tp4329
a(I6
I8
tp4330
a(I6
I8
tp4331
a(I4
I2
tp4332
a(I2
I2
tp4333
a(I4
I2
tp4334
a(I5
I2
tp4335
a(I4
I2
tp4336
a(I4
I2
tp4337
a(I6
I5
tp4338
a(I4
I3
tp4339
a(I6
I5
tp4340
a(I5
I6
tp4341
a(I6
I9
tp4342
a(I5
I8
tp4343
a(I2
I1
tp4344
a(I5
I3
tp4345
a(I7
I9
tp4346
a(I5
I4
tp4347
a(I5
I3
tp4348
a(I4
I2
tp4349
a(I6
I8
tp4350
a(I4
I3
tp4351
a(I4
I3
tp4352
a(I4
I4
tp4353
a(I2
I1
tp4354
a(I3
I2
tp4355
a(I5
I4
tp4356
a(I5
I8
tp4357
a(I4
I1
tp4358
a(I3
I2
tp4359
a(I3
I2
tp4360
a(I4
I2
tp4361
a(I4
I1
tp4362
a(I5
I6
tp4363
a(I5
I8
tp4364
a(I2
I1
tp4365
a(I7
I8
tp4366
a(I3
I2
tp4367
a(I2
I1
tp4368
a(I2
I1
tp4369
a(I5
I7
tp4370
a(I2
I2
tp4371
a(I5
I4
tp4372
a(I4
I1
tp4373
a(I4
I2
tp4374
a(I6
I9
tp4375
a(I5
I3
tp4376
a(I4
I2
tp4377
a(I5
I4
tp4378
a(I2
I2
tp4379
a(I5
I3
tp4380
a(I2
I3
tp4381
a(I5
I7
tp4382
a(I4
I1
tp4383
a(I2
I1
tp4384
a(I3
I2
tp4385
a(I3
I2
tp4386
a(I3
I2
tp4387
a(I2
I1
tp4388
a(I2
I1
tp4389
a(I2
I1
tp4390
a(I5
I5
tp4391
a(I2
I1
tp4392
a(I2
I1
tp4393
a(I6
I9
tp4394
a(I8
I9
tp4395
a(I8
I8
tp4396
a(I6
I8
tp4397
a(I2
I2
tp4398
a(I6
I8
tp4399
a(I7
I8
tp4400
a(I6
I8
tp4401
a(I7
I9
tp4402
a(I8
I9
tp4403
a(I5
I4
tp4404
a(I7
I9
tp4405
a(I3
I2
tp4406
a(I4
I6
tp4407
a(I4
I2
tp4408
a(I5
I3
tp4409
a(I4
I2
tp4410
a(I6
I6
tp4411
a(I6
I9
tp4412
a(I6
I8
tp4413
a(I5
I4
tp4414
a(I2
I1
tp4415
a(I6
I5
tp4416
a(I5
I6
tp4417
a(I2
I1
tp4418
a(I2
I1
tp4419
a(I2
I1
tp4420
a(I3
I3
tp4421
a(I5
I4
tp4422
a(I6
I5
tp4423
a(I5
I3
tp4424
a(I4
I2
tp4425
a(I4
I2
tp4426
a(I6
I7
tp4427
a(I4
I1
tp4428
a(I7
I9
tp4429
a(I3
I2
tp4430
a(I3
I1
tp4431
a(I2
I2
tp4432
a(I5
I5
tp4433
a(I4
I7
tp4434
a(I5
I4
tp4435
a(I5
I3
tp4436
a(I6
I8
tp4437
a(I3
I3
tp4438
a(I6
I8
tp4439
a(I4
I3
tp4440
a(I6
I8
tp4441
a(I2
I1
tp4442
a(I6
I9
tp4443
a(I7
I8
tp4444
a(I3
I1
tp4445
a(I7
I8
tp4446
a(I4
I2
tp4447
a(I4
I4
tp4448
a(I4
I2
tp4449
a(I7
I9
tp4450
a(I4
I2
tp4451
a(I6
I7
tp4452
a(I7
I9
tp4453
a(I6
I9
tp4454
a(I2
I1
tp4455
a(I2
I1
tp4456
a(I2
I1
tp4457
a(I4
I2
tp4458
a(I2
I1
tp4459
a(I4
I2
tp4460
a(I8
I9
tp4461
a(I2
I1
tp4462
a(I5
I4
tp4463
a(I2
I1
tp4464
a(I6
I8
tp4465
a(I2
I1
tp4466
a(I2
I1
tp4467
a(I8
I9
tp4468
a(I2
I1
tp4469
a(I2
I2
tp4470
a(I2
I1
tp4471
a(I7
I8
tp4472
a(I4
I3
tp4473
a(I2
I1
tp4474
a(I6
I9
tp4475
a(I6
I8
tp4476
a(I7
I9
tp4477
a(I3
I3
tp4478
a(I4
I8
tp4479
a(I5
I2
tp4480
a(I4
I3
tp4481
a(I6
I6
tp4482
a(I3
I1
tp4483
a(I3
I3
tp4484
a(I9
I1
tp4485
a(I2
I1
tp4486
a(I4
I4
tp4487
a(I4
I6
tp4488
a(I3
I6
tp4489
a(I4
I2
tp4490
a(I2
I2
tp4491
a(I5
I3
tp4492
a(I5
I3
tp4493
a(I5
I3
tp4494
a(I2
I2
tp4495
a(I6
I8
tp4496
a(I5
I8
tp4497
asI18
(lp4498
(I7
I5
tp4499
a(I7
I1
tp4500
a(I6
I6
tp4501
a(I4
I6
tp4502
a(I5
I4
tp4503
a(I4
I2
tp4504
a(I5
I4
tp4505
a(I4
I3
tp4506
a(I4
I4
tp4507
a(I4
I2
tp4508
a(I4
I2
tp4509
a(I2
I1
tp4510
a(I9
I9
tp4511
a(I4
I2
tp4512
a(I7
I7
tp4513
a(I6
I4
tp4514
a(I3
I3
tp4515
a(I5
I3
tp4516
a(I6
I7
tp4517
a(I5
I3
tp4518
a(I5
I3
tp4519
a(I4
I3
tp4520
a(I7
I6
tp4521
a(I6
I8
tp4522
a(I7
I9
tp4523
a(I4
I2
tp4524
a(I3
I2
tp4525
a(I3
I3
tp4526
a(I4
I2
tp4527
a(I4
I2
tp4528
a(I5
I4
tp4529
a(I3
I2
tp4530
a(I3
I2
tp4531
a(I4
I2
tp4532
a(I5
I3
tp4533
a(I6
I8
tp4534
a(I2
I1
tp4535
a(I4
I2
tp4536
a(I4
I2
tp4537
a(I8
I8
tp4538
a(I4
I2
tp4539
a(I4
I2
tp4540
a(I5
I4
tp4541
a(I4
I2
tp4542
a(I4
I2
tp4543
a(I5
I4
tp4544
a(I5
I5
tp4545
a(I4
I2
tp4546
a(I4
I1
tp4547
a(I4
I3
tp4548
a(I4
I6
tp4549
a(I4
I2
tp4550
a(I4
I2
tp4551
a(I4
I5
tp4552
a(I6
I8
tp4553
a(I4
I2
tp4554
a(I3
I2
tp4555
a(I4
I2
tp4556
a(I4
I7
tp4557
a(I5
I3
tp4558
a(I5
I8
tp4559
a(I7
I6
tp4560
a(I9
I9
tp4561
a(I2
I1
tp4562
a(I4
I2
tp4563
a(I4
I2
tp4564
a(I5
I3
tp4565
a(I3
I3
tp4566
a(I2
I1
tp4567
a(I3
I2
tp4568
a(I6
I8
tp4569
a(I5
I5
tp4570
a(I6
I7
tp4571
a(I6
I7
tp4572
a(I5
I3
tp4573
a(I4
I3
tp4574
a(I4
I4
tp4575
a(I6
I7
tp4576
a(I7
I9
tp4577
a(I8
I8
tp4578
a(I8
I8
tp4579
a(I5
I7
tp4580
a(I2
I1
tp4581
a(I4
I2
tp4582
a(I4
I2
tp4583
a(I4
I2
tp4584
a(I4
I2
tp4585
a(I4
I2
tp4586
a(I3
I2
tp4587
a(I6
I8
tp4588
a(I4
I3
tp4589
a(I4
I2
tp4590
a(I3
I1
tp4591
a(I4
I2
tp4592
a(I4
I4
tp4593
a(I4
I2
tp4594
a(I4
I4
tp4595
a(I5
I3
tp4596
a(I5
I6
tp4597
a(I6
I8
tp4598
a(I3
I2
tp4599
a(I4
I2
tp4600
a(I4
I2
tp4601
a(I4
I2
tp4602
a(I4
I2
tp4603
a(I6
I3
tp4604
a(I5
I3
tp4605
a(I4
I2
tp4606
a(I5
I3
tp4607
a(I7
I3
tp4608
a(I5
I7
tp4609
a(I2
I3
tp4610
a(I4
I2
tp4611
a(I5
I3
tp4612
a(I4
I3
tp4613
a(I6
I5
tp4614
a(I6
I5
tp4615
a(I5
I2
tp4616
a(I4
I2
tp4617
a(I5
I4
tp4618
a(I5
I4
tp4619
a(I5
I4
tp4620
a(I9
I8
tp4621
a(I5
I1
tp4622
a(I6
I8
tp4623
a(I7
I8
tp4624
a(I5
I3
tp4625
a(I5
I3
tp4626
a(I2
I2
tp4627
a(I4
I1
tp4628
a(I4
I2
tp4629
a(I4
I6
tp4630
a(I4
I2
tp4631
a(I9
I9
tp4632
a(I3
I2
tp4633
a(I3
I3
tp4634
a(I4
I4
tp4635
a(I5
I3
tp4636
a(I5
I3
tp4637
a(I5
I3
tp4638
a(I2
I1
tp4639
a(I4
I4
tp4640
a(I3
I2
tp4641
a(I5
I6
tp4642
a(I6
I8
tp4643
a(I5
I6
tp4644
a(I9
I6
tp4645
a(I6
I6
tp4646
a(I9
I9
tp4647
a(I7
I9
tp4648
a(I5
I5
tp4649
a(I2
I2
tp4650
a(I4
I2
tp4651
a(I6
I5
tp4652
a(I6
I8
tp4653
a(I6
I5
tp4654
a(I3
I2
tp4655
a(I3
I5
tp4656
a(I4
I2
tp4657
a(I3
I2
tp4658
a(I6
I4
tp4659
a(I4
I3
tp4660
a(I4
I1
tp4661
a(I2
I2
tp4662
a(I3
I3
tp4663
a(I2
I1
tp4664
a(I5
I7
tp4665
a(I5
I7
tp4666
a(I7
I8
tp4667
a(I7
I8
tp4668
a(I2
I1
tp4669
a(I2
I2
tp4670
a(I5
I6
tp4671
a(I9
I9
tp4672
a(I6
I8
tp4673
a(I2
I2
tp4674
a(I2
I1
tp4675
a(I4
I2
tp4676
a(I4
I2
tp4677
a(I7
I9
tp4678
a(I3
I3
tp4679
a(I3
I3
tp4680
a(I4
I3
tp4681
a(I5
I5
tp4682
a(I7
I8
tp4683
a(I6
I6
tp4684
a(I4
I2
tp4685
a(I4
I2
tp4686
a(I4
I2
tp4687
a(I7
I6
tp4688
a(I7
I6
tp4689
a(I4
I3
tp4690
a(I5
I5
tp4691
a(I4
I2
tp4692
a(I2
I1
tp4693
a(I7
I9
tp4694
a(I7
I9
tp4695
a(I7
I8
tp4696
a(I7
I8
tp4697
a(I8
I9
tp4698
a(I4
I7
tp4699
a(I8
I9
tp4700
a(I3
I2
tp4701
a(I6
I5
tp4702
a(I5
I5
tp4703
a(I5
I5
tp4704
a(I5
I3
tp4705
a(I4
I5
tp4706
a(I5
I5
tp4707
a(I4
I2
tp4708
a(I3
I1
tp4709
a(I3
I1
tp4710
a(I5
I5
tp4711
a(I5
I5
tp4712
a(I3
I6
tp4713
a(I5
I3
tp4714
a(I7
I7
tp4715
a(I2
I1
tp4716
a(I2
I1
tp4717
a(I2
I1
tp4718
a(I2
I1
tp4719
a(I3
I2
tp4720
a(I5
I3
tp4721
a(I5
I4
tp4722
a(I5
I7
tp4723
a(I2
I2
tp4724
a(I2
I1
tp4725
a(I2
I1
tp4726
a(I4
I2
tp4727
a(I6
I7
tp4728
a(I5
I6
tp4729
a(I5
I6
tp4730
a(I4
I2
tp4731
a(I2
I1
tp4732
a(I4
I4
tp4733
a(I2
I1
tp4734
a(I4
I4
tp4735
a(I3
I2
tp4736
a(I6
I9
tp4737
a(I3
I2
tp4738
a(I7
I7
tp4739
a(I4
I6
tp4740
a(I4
I3
tp4741
a(I4
I3
tp4742
a(I5
I5
tp4743
a(I5
I3
tp4744
a(I3
I5
tp4745
a(I4
I7
tp4746
a(I7
I9
tp4747
a(I4
I7
tp4748
a(I3
I3
tp4749
a(I8
I9
tp4750
a(I6
I6
tp4751
a(I4
I2
tp4752
a(I2
I1
tp4753
a(I2
I1
tp4754
a(I5
I4
tp4755
a(I6
I5
tp4756
a(I4
I3
tp4757
a(I7
I9
tp4758
a(I4
I7
tp4759
a(I4
I7
tp4760
a(I4
I2
tp4761
a(I2
I1
tp4762
a(I2
I1
tp4763
a(I2
I1
tp4764
a(I7
I8
tp4765
a(I4
I2
tp4766
a(I5
I4
tp4767
a(I6
I4
tp4768
a(I2
I1
tp4769
a(I4
I2
tp4770
a(I7
I8
tp4771
a(I4
I6
tp4772
a(I4
I2
tp4773
a(I4
I2
tp4774
a(I5
I4
tp4775
a(I4
I2
tp4776
a(I4
I2
tp4777
a(I6
I7
tp4778
a(I6
I7
tp4779
a(I4
I2
tp4780
a(I4
I2
tp4781
a(I4
I2
tp4782
a(I4
I2
tp4783
a(I5
I4
tp4784
a(I6
I6
tp4785
a(I6
I4
tp4786
a(I4
I2
tp4787
a(I5
I3
tp4788
a(I5
I4
tp4789
a(I4
I2
tp4790
a(I4
I2
tp4791
a(I4
I2
tp4792
a(I2
I2
tp4793
a(I6
I6
tp4794
a(I4
I2
tp4795
a(I4
I2
tp4796
a(I2
I1
tp4797
a(I2
I1
tp4798
a(I4
I2
tp4799
a(I5
I8
tp4800
a(I6
I4
tp4801
a(I5
I5
tp4802
a(I6
I7
tp4803
a(I5
I5
tp4804
asI19
(lp4805
(I2
I2
tp4806
a(I5
I3
tp4807
a(I8
I9
tp4808
a(I7
I9
tp4809
a(I6
I8
tp4810
a(I3
I2
tp4811
a(I3
I2
tp4812
a(I5
I4
tp4813
a(I4
I2
tp4814
a(I4
I3
tp4815
a(I3
I2
tp4816
a(I3
I2
tp4817
a(I3
I2
tp4818
a(I5
I4
tp4819
a(I4
I2
tp4820
a(I4
I2
tp4821
a(I4
I2
tp4822
a(I7
I7
tp4823
a(I7
I8
tp4824
a(I5
I6
tp4825
a(I6
I8
tp4826
a(I4
I5
tp4827
a(I3
I1
tp4828
a(I3
I5
tp4829
a(I6
I9
tp4830
a(I4
I7
tp4831
a(I5
I3
tp4832
a(I7
I7
tp4833
a(I3
I2
tp4834
a(I4
I2
tp4835
a(I5
I5
tp4836
a(I7
I9
tp4837
a(I8
I9
tp4838
a(I3
I4
tp4839
a(I2
I1
tp4840
a(I4
I2
tp4841
a(I5
I5
tp4842
a(I3
I3
tp4843
a(I3
I6
tp4844
a(I6
I8
tp4845
a(I4
I3
tp4846
a(I4
I3
tp4847
a(I6
I8
tp4848
a(I4
I3
tp4849
a(I7
I8
tp4850
a(I2
I1
tp4851
a(I7
I8
tp4852
a(I4
I2
tp4853
a(I6
I7
tp4854
a(I2
I1
tp4855
a(I2
I1
tp4856
a(I6
I7
tp4857
a(I4
I2
tp4858
a(I2
I2
tp4859
a(I2
I2
tp4860
a(I4
I6
tp4861
a(I5
I4
tp4862
a(I4
I7
tp4863
a(I7
I6
tp4864
a(I6
I8
tp4865
a(I2
I1
tp4866
a(I4
I2
tp4867
a(I6
I4
tp4868
a(I3
I1
tp4869
a(I3
I1
tp4870
a(I4
I2
tp4871
a(I4
I2
tp4872
a(I6
I5
tp4873
a(I4
I1
tp4874
a(I2
I2
tp4875
a(I3
I4
tp4876
a(I3
I4
tp4877
a(I2
I2
tp4878
a(I4
I2
tp4879
a(I5
I3
tp4880
a(I4
I2
tp4881
a(I5
I4
tp4882
a(I4
I2
tp4883
a(I5
I3
tp4884
a(I5
I4
tp4885
a(I4
I2
tp4886
a(I3
I1
tp4887
a(I7
I8
tp4888
a(I6
I9
tp4889
a(I4
I3
tp4890
a(I4
I2
tp4891
a(I4
I3
tp4892
a(I4
I3
tp4893
a(I2
I1
tp4894
a(I6
I5
tp4895
a(I6
I5
tp4896
a(I4
I3
tp4897
a(I5
I5
tp4898
a(I3
I4
tp4899
a(I5
I4
tp4900
a(I6
I9
tp4901
a(I6
I8
tp4902
a(I4
I2
tp4903
a(I6
I6
tp4904
a(I4
I3
tp4905
a(I5
I5
tp4906
a(I6
I6
tp4907
a(I6
I6
tp4908
a(I6
I8
tp4909
a(I5
I3
tp4910
a(I2
I1
tp4911
a(I3
I2
tp4912
a(I6
I9
tp4913
a(I4
I3
tp4914
a(I3
I2
tp4915
a(I5
I5
tp4916
a(I7
I8
tp4917
a(I7
I7
tp4918
a(I5
I5
tp4919
a(I4
I3
tp4920
a(I5
I4
tp4921
a(I5
I3
tp4922
a(I5
I5
tp4923
a(I5
I8
tp4924
a(I4
I2
tp4925
a(I5
I2
tp4926
a(I5
I8
tp4927
a(I8
I7
tp4928
a(I4
I2
tp4929
a(I5
I7
tp4930
a(I6
I9
tp4931
a(I5
I2
tp4932
a(I2
I1
tp4933
a(I5
I4
tp4934
a(I5
I3
tp4935
a(I2
I2
tp4936
a(I4
I2
tp4937
a(I3
I2
tp4938
a(I4
I3
tp4939
a(I4
I2
tp4940
a(I5
I4
tp4941
a(I7
I6
tp4942
a(I5
I5
tp4943
a(I5
I4
tp4944
a(I2
I1
tp4945
a(I4
I2
tp4946
a(I5
I4
tp4947
a(I4
I3
tp4948
a(I5
I3
tp4949
a(I4
I4
tp4950
a(I4
I3
tp4951
a(I5
I5
tp4952
a(I5
I3
tp4953
a(I8
I8
tp4954
a(I5
I2
tp4955
a(I2
I1
tp4956
a(I4
I1
tp4957
a(I4
I2
tp4958
a(I4
I2
tp4959
a(I4
I2
tp4960
a(I4
I2
tp4961
a(I6
I6
tp4962
a(I6
I8
tp4963
a(I3
I6
tp4964
a(I2
I1
tp4965
a(I5
I7
tp4966
a(I3
I5
tp4967
a(I3
I5
tp4968
a(I4
I6
tp4969
a(I5
I5
tp4970
a(I5
I3
tp4971
a(I8
I8
tp4972
a(I5
I4
tp4973
a(I6
I4
tp4974
a(I5
I4
tp4975
a(I4
I3
tp4976
a(I4
I6
tp4977
a(I5
I7
tp4978
a(I5
I4
tp4979
a(I6
I7
tp4980
a(I4
I6
tp4981
asI20
(lp4982
(I5
I4
tp4983
a(I3
I2
tp4984
a(I2
I1
tp4985
a(I5
I5
tp4986
a(I7
I7
tp4987
a(I4
I6
tp4988
a(I5
I4
tp4989
a(I2
I1
tp4990
a(I4
I3
tp4991
a(I5
I4
tp4992
a(I2
I1
tp4993
a(I3
I1
tp4994
a(I6
I9
tp4995
a(I4
I1
tp4996
a(I2
I2
tp4997
a(I5
I3
tp4998
a(I4
I2
tp4999
a(I6
I9
tp5000
a(I4
I4
tp5001
a(I5
I5
tp5002
a(I5
I4
tp5003
a(I5
I3
tp5004
a(I5
I3
tp5005
a(I6
I4
tp5006
a(I6
I4
tp5007
a(I6
I8
tp5008
a(I4
I2
tp5009
a(I7
I9
tp5010
a(I6
I6
tp5011
a(I4
I2
tp5012
a(I5
I4
tp5013
a(I6
I8
tp5014
a(I5
I3
tp5015
a(I5
I3
tp5016
a(I5
I3
tp5017
a(I2
I1
tp5018
a(I2
I1
tp5019
a(I2
I1
tp5020
a(I2
I1
tp5021
a(I4
I6
tp5022
a(I5
I7
tp5023
a(I2
I1
tp5024
a(I2
I1
tp5025
a(I2
I1
tp5026
a(I5
I3
tp5027
a(I4
I4
tp5028
a(I6
I8
tp5029
a(I5
I5
tp5030
a(I3
I4
tp5031
a(I5
I1
tp5032
a(I6
I5
tp5033
a(I6
I9
tp5034
a(I5
I4
tp5035
a(I7
I9
tp5036
a(I5
I5
tp5037
a(I4
I2
tp5038
a(I2
I1
tp5039
a(I4
I7
tp5040
a(I9
I9
tp5041
a(I4
I2
tp5042
a(I8
I9
tp5043
a(I2
I1
tp5044
a(I5
I3
tp5045
a(I6
I7
tp5046
a(I4
I4
tp5047
a(I5
I3
tp5048
a(I7
I6
tp5049
a(I4
I3
tp5050
a(I4
I3
tp5051
a(I5
I5
tp5052
a(I3
I2
tp5053
a(I2
I1
tp5054
a(I5
I4
tp5055
a(I7
I6
tp5056
a(I3
I2
tp5057
a(I8
I9
tp5058
a(I5
I8
tp5059
a(I5
I4
tp5060
a(I3
I4
tp5061
a(I3
I3
tp5062
a(I5
I4
tp5063
a(I7
I9
tp5064
a(I5
I4
tp5065
a(I3
I5
tp5066
a(I3
I5
tp5067
a(I2
I1
tp5068
a(I5
I5
tp5069
a(I3
I3
tp5070
a(I4
I2
tp5071
a(I4
I2
tp5072
a(I4
I2
tp5073
a(I3
I2
tp5074
a(I4
I2
tp5075
a(I4
I2
tp5076
a(I4
I2
tp5077
a(I2
I1
tp5078
a(I7
I9
tp5079
a(I2
I2
tp5080
a(I5
I5
tp5081
a(I2
I1
tp5082
a(I7
I9
tp5083
a(I9
I9
tp5084
a(I4
I4
tp5085
a(I4
I2
tp5086
a(I2
I2
tp5087
a(I2
I1
tp5088
a(I5
I4
tp5089
a(I6
I5
tp5090
a(I5
I7
tp5091
a(I7
I6
tp5092
a(I2
I1
tp5093
a(I7
I9
tp5094
a(I7
I9
tp5095
a(I1
I1
tp5096
a(I7
I9
tp5097
a(I4
I2
tp5098
a(I4
I2
tp5099
a(I4
I3
tp5100
a(I5
I5
tp5101
a(I3
I1
tp5102
a(I4
I3
tp5103
a(I5
I5
tp5104
a(I4
I4
tp5105
a(I3
I5
tp5106
a(I5
I5
tp5107
a(I5
I5
tp5108
a(I4
I3
tp5109
a(I4
I2
tp5110
a(I4
I6
tp5111
a(I4
I6
tp5112
a(I8
I9
tp5113
a(I4
I1
tp5114
a(I5
I4
tp5115
a(I4
I6
tp5116
a(I2
I2
tp5117
a(I5
I3
tp5118
a(I6
I7
tp5119
a(I5
I5
tp5120
a(I4
I1
tp5121
a(I5
I8
tp5122
a(I5
I3
tp5123
a(I3
I2
tp5124
a(I4
I2
tp5125
a(I4
I2
tp5126
a(I4
I2
tp5127
a(I3
I2
tp5128
a(I3
I2
tp5129
a(I4
I6
tp5130
a(I5
I5
tp5131
a(I3
I2
tp5132
a(I5
I5
tp5133
a(I2
I3
tp5134
a(I4
I3
tp5135
a(I7
I8
tp5136
a(I3
I5
tp5137
a(I2
I1
tp5138
a(I3
I2
tp5139
a(I3
I3
tp5140
a(I2
I1
tp5141
a(I3
I6
tp5142
a(I7
I9
tp5143
a(I4
I4
tp5144
a(I5
I8
tp5145
a(I4
I2
tp5146
a(I6
I8
tp5147
a(I6
I9
tp5148
a(I3
I2
tp5149
a(I3
I2
tp5150
a(I4
I2
tp5151
a(I3
I3
tp5152
a(I6
I8
tp5153
a(I5
I3
tp5154
a(I5
I8
tp5155
a(I4
I4
tp5156
a(I6
I5
tp5157
a(I3
I5
tp5158
a(I4
I2
tp5159
a(I4
I3
tp5160
a(I5
I5
tp5161
a(I4
I2
tp5162
a(I2
I1
tp5163
a(I5
I3
tp5164
a(I5
I3
tp5165
a(I5
I5
tp5166
a(I4
I7
tp5167
a(I6
I5
tp5168
a(I4
I4
tp5169
a(I4
I2
tp5170
a(I6
I9
tp5171
a(I6
I8
tp5172
a(I5
I5
tp5173
a(I4
I2
tp5174
a(I5
I5
tp5175
a(I5
I9
tp5176
a(I3
I1
tp5177
a(I4
I6
tp5178
a(I3
I4
tp5179
a(I4
I6
tp5180
a(I4
I3
tp5181
a(I6
I9
tp5182
a(I7
I9
tp5183
a(I6
I9
tp5184
a(I5
I4
tp5185
a(I2
I1
tp5186
a(I4
I2
tp5187
a(I5
I3
tp5188
a(I5
I3
tp5189
astp5190
.